
 Start         Length     Name                   Class
 0001:00401000 000080FCH .text                   CODE
 0002:0040A000 00000620H .itext                  ICODE
 0003:0040B000 00000AF8H .data                   DATA
 0004:0040C000 00004924H .bss                    BSS
 0005:00000000 00000008H .tls                    TLS


Detailed map of segments

 0001:00000000 000046A1 C=CODE     S=.text    G=(none)   M=System   ACBP=A9
 0001:000046A4 00000105 C=CODE     S=.text    G=(none)   M=SysInit  ACBP=A9
 0001:000047AC 00000280 C=CODE     S=.text    G=(none)   M=SysConst ACBP=A9
 0001:00004A2C 000000D4 C=CODE     S=.text    G=(none)   M=Windows  ACBP=A9
 0001:00004B00 00003529 C=CODE     S=.text    G=(none)   M=SysUtils ACBP=A9
 0001:0000802C 000000D0 C=CODE     S=.text    G=(none)   M=Mag_App_AnnotBurnImage ACBP=A9
 0002:00000000 00000095 C=ICODE    S=.itext   G=(none)   M=System   ACBP=A9
 0002:00000098 00000011 C=ICODE    S=.itext   G=(none)   M=Windows  ACBP=A9
 0002:000000AC 00000088 C=ICODE    S=.itext   G=(none)   M=SysUtils ACBP=A9
 0002:00000134 000004EC C=ICODE    S=.itext   G=(none)   M=Mag_App_AnnotBurnImage ACBP=A9
 0003:00000000 00000780 C=DATA     S=.data    G=DGROUP   M=System   ACBP=A9
 0003:00000780 00000020 C=DATA     S=.data    G=DGROUP   M=SysInit  ACBP=A9
 0003:000007A0 000001E8 C=DATA     S=.data    G=DGROUP   M=SysUtils ACBP=A9
 0004:00000000 000027EC C=BSS      S=.bss     G=DGROUP   M=System   ACBP=A9
 0004:000027EC 0000000C C=BSS      S=.bss     G=DGROUP   M=SysInit  ACBP=A9
 0004:000027F8 00000008 C=BSS      S=.bss     G=DGROUP   M=Windows  ACBP=A9
 0004:00002800 00002108 C=BSS      S=.bss     G=DGROUP   M=SysUtils ACBP=A9
 0004:00004908 0000001C C=BSS      S=.bss     G=DGROUP   M=Mag_App_AnnotBurnImage ACBP=A9
 0005:00000000 00000008 C=TLS      S=.tls     G=(none)   M=System   ACBP=A9


  Address             Publics by Name

 0004:0000490C       Mag_App_AnnotBurnImage.DebugMode
 0001:00008034       Mag_App_AnnotBurnImage.Delphi_AnnotatedJobCompleted
 0001:0000802C       Mag_App_AnnotBurnImage.Delphi_MakeAnnotatedFile
 0001:0000803C       Mag_App_AnnotBurnImage.Delphi_TestConnection
 0001:00008044       Mag_App_AnnotBurnImage.Finalization
 0004:00004910       Mag_App_AnnotBurnImage.ImageFileFullPath
 0004:00004908       Mag_App_AnnotBurnImage.JobID
 0002:00000134       Mag_App_AnnotBurnImage.Mag_App_AnnotBurnImage
 0004:00004918       Mag_App_AnnotBurnImage.OutputBurnedImageFullPath
 0004:0000491C       Mag_App_AnnotBurnImage.ReturnCode
 0004:00004920       Mag_App_AnnotBurnImage.S
 0004:00004914       Mag_App_AnnotBurnImage.XMLFileFullPath
 0001:0000471C       SysInit.@GetTls
 0001:00004768       SysInit.@InitExe
 0001:000046C4       SysInit.AllocTlsBuffer
 0001:000046A4       SysInit.GetModuleHandle
 0001:000046D0       SysInit.GetTlsSize
 0004:000027F0       SysInit.HInstance
 0001:0000475C       SysInit.InitializeModule
 0001:000046D8       SysInit.InitThreadTLS
 0001:000046AC       SysInit.LocalAlloc
 0003:00000788       SysInit.Module
 0004:000027ED       SysInit.ModuleIsCpp
 0004:000027EC       SysInit.ModuleIsLib
 0003:00000784       SysInit.PtrToNil
 0004:000027F4       SysInit.tlsBuffer
 0001:000046B4       SysInit.TlsGetValue
 0003:00000780       SysInit.TlsIndex
 0005:00000008       SysInit.TlsLast
 0001:000046BC       SysInit.TlsSetValue
 0004:000005B0       System..6
 0001:0000000C       System..TObject
 0001:00002E60       System.@AfterConstruction
 0001:00002468       System.@AStrCmp
 0001:00002EB0       System.@BeforeDestruction
 0001:00002E08       System.@ClassCreate
 0001:00002E58       System.@ClassDestroy
 0001:00002410       System.@Close
 0001:00003F20       System.@DispCallByIDError
 0001:00003F10       System.@Dispose
 0001:000033D4       System.@DoneExcept
 0001:00003F5C       System.@DynArrayClear
 0001:00003F54       System.@DynArrayHigh
 0001:00003F4C       System.@DynArrayLength
 0001:000034A4       System.@ExceptionHandler
 0001:000024D8       System.@FillChar
 0001:00003F04       System.@Finalize
 0001:00003E18       System.@FinalizeArray
 0001:00003DCC       System.@FinalizeRecord
 0001:00002404       System.@Flush
 0001:00002C70       System.@FpuInit
 0001:00002BAC       System.@FpuMaskInit
 0001:00001CD0       System.@FreeMem
 0001:00001CB4       System.@GetMem
 0001:000038E0       System.@Halt
 0001:00003804       System.@Halt0
 0001:00002FC4       System.@HandleAnyException
 0001:00003278       System.@HandleFinally
 0001:00003320       System.@HandleFinallyInternal
 0001:000030F0       System.@HandleOnException
 0001:000036C0       System.@InitImports
 0001:00003698       System.@InitResStringImports
 0001:000045CC       System.@IntfClear
 0001:00002C7C       System.@IntOver
 0001:00002D64       System.@IsClass
 0001:00002B7C       System.@isNECWindows
 0001:0000391C       System.@LStrArrayClr
 0001:0000394C       System.@LStrAsg
 0001:00003B78       System.@LStrCat
 0001:00003BC4       System.@LStrCatN
 0001:000038F8       System.@LStrClr
 0001:00003C58       System.@LStrCmp
 0001:00003CC4       System.@LStrCopy
 0001:00003B40       System.@LStrFromArray
 0001:00003AC4       System.@LStrFromChar
 0001:00003AD4       System.@LStrFromPChar
 0001:000039E8       System.@LStrFromPCharLen
 0001:00003B04       System.@LStrFromPWChar
 0001:00003A38       System.@LStrFromPWCharLen
 0001:00003B58       System.@LStrFromWStr
 0001:00003990       System.@LStrLAsg
 0001:00003B6C       System.@LStrLen
 0001:00003D04       System.@LStrSetLength
 0001:00003CB0       System.@LStrToPChar
 0001:000039BC       System.@NewAnsiString
 0001:00002890       System.@Pow10
 0001:00003380       System.@RaiseAgain
 0001:00003358       System.@RaiseExcept
 0001:000025B0       System.@ReadChar
 0001:0000261C       System.@ReadLn
 0001:00001CE8       System.@ReallocMem
 0001:00002140       System.@ResetText
 0001:0000214C       System.@RewritText
 0001:000038EC       System.@RunError
 0001:00003658       System.@StartExe
 0001:00000148       System.@strlen
 0001:0000264C       System.@ValLong
 0001:00003E00       System.@VarClr
 0001:00003D68       System.@Write0LString
 0001:00002834       System.@Write0String
 0001:00002764       System.@WriteBytes
 0001:00002840       System.@WriteLn
 0001:00003D70       System.@WriteLString
 0001:000027B8       System.@WriteSpaces
 0001:00003DA8       System.@WStrArrayClr
 0001:00003D90       System.@WStrClr
 0001:00001DDC       System.@_IOTest
 0001:00003F28       System.@_llmul
 0004:00000028       System.AbstractErrorProc
 0001:0000446C       System.AddModuleUnloadProc
 0001:00000584       System.AllocateLargeBlock
 0001:000004C4       System.AllocNewSequentialFeedMediumPool
 0004:000005B8       System.AllocSize2SmallBlockTypeIndX4
 0001:00001258       System.AppendStringToBuffer
 0004:00000020       System.AssertErrorProc
 0001:00000458       System.BinMediumSequentialFeedRemainder
 0001:00001A64       System.BuildBlockTypeLookupTable
 0001:0000113C       System.CardinalToStrBuf
 0001:00003A18       System.CharFromWChar
 0001:000000C0       System.CharNext
 0001:00002F40       System.CheckJmp
 0001:000014A0       System.CheckSmallBlockPoolForLeaks
 0001:00000060       System.CloseHandle
 0004:0000003C       System.CmdLine
 0004:00000038       System.CmdShow
 0003:00000030       System.Copyright
 0001:00000068       System.CreateFileA
 0003:00000018       System.DebugHook
 0003:00000014       System.Default8087CW
 0004:000005B4       System.DefaultSystemCodePage
 0003:00000024       System.DefaultTextLineBreakStyle
 0001:00003F98       System.DelayLoadResourceModule
 0001:000001C4       System.DestroyWindow
 0003:00000770       System.dig
 0004:00000000       System.DispCallByIDProc
 0003:00000748       System.errCaption
 0001:00001DD0       System.Error
 0003:00000004       System.ErrorAddr
 0001:00001D84       System.ErrorAt
 0004:00000008       System.ErrorProc
 0004:000003E0       System.ErrOutput
 0001:00001D58       System.ExceptAddr
 0004:0000000C       System.ExceptClsProc
 0004:0000001C       System.ExceptionClass
 0001:00001D38       System.ExceptObject
 0004:00000010       System.ExceptObjProc
 0004:00000004       System.ExceptProc
 0003:00000000       System.ExitCode
 0001:00003748       System.ExitDll
 0004:00000040       System.ExitProc
 0001:000000C8       System.ExitProcess
 0004:00000024       System.ExitProcessProc
 0004:000027B4       System.ExpectedMemoryLeaks
 0004:000027B8       System.ExpectedMemoryLeaksListLocked
 0003:00000008       System.FileMode
 0001:00002194       System.FileNOPProc
 0001:00004644       System.Finalization
 0001:00001C60       System.FinalizeMemoryManager
 0001:0000358C       System.FinalizeUnits
 0001:00004018       System.FindBS
 0001:000000D8       System.FindClose
 0001:000000E0       System.FindFirstFile
 0001:00003FE0       System.FindResourceHInstance
 0001:000023F8       System.Flush
 0001:00002888       System.FPower10
 0001:00001BD0       System.FreeAllMemory
 0001:000005E8       System.FreeLargeBlock
 0001:000000E8       System.FreeLibrary
 0001:0000463C       System.GetACP
 0001:00000188       System.GetCmdShow
 0001:000000F0       System.GetCommandLine
 0001:00000180       System.GetCurrentThreadId
 0001:00002D88       System.GetDynaMethod
 0001:00000078       System.GetFileSize
 0001:00000070       System.GetFileType
 0001:00001100       System.GetFirstAndLastSmallBlockInPool
 0001:000010C0       System.GetFirstMediumBlockInPool
 0001:00002B74       System.GetKeyboardType
 0001:000000F8       System.GetLastError
 0001:00000100       System.GetLocaleInfo
 0001:00000108       System.GetModuleFileName
 0001:00000110       System.GetModuleHandle
 0001:0000136C       System.GetObjectClass
 0001:00001F2C       System.GetParamStr
 0001:00000118       System.GetProcAddress
 0001:00000120       System.GetStartupInfo
 0001:00000080       System.GetStdHandle
 0001:00000128       System.GetThreadLocale
 0004:000027C0       System.InitContext
 0001:00001AA8       System.InitializeMemoryManager
 0001:000035F0       System.InitUnits
 0005:00000004       System.InOutRes
 0004:00000048       System.Input
 0001:000003F8       System.InsertMediumBlockIntoBin
 0001:000021D4       System.InternalClose
 0001:000023B0       System.InternalFlush
 0001:000012EC       System.InternalIsValidClass
 0001:00001E0C       System.IOResult
 0004:00000044       System.IsConsole
 0004:00000034       System.IsLibrary
 0004:00000045       System.IsMultiThread
 0001:00001270       System.IsValidVMTAddress
 0003:0000001C       System.JITEnable
 0004:000027A4       System.LargeBlocksCircularList
 0004:000027A0       System.LargeBlocksLocked
 0004:00000714       System.LastSequentiallyFedMediumBlock
 0003:00000028       System.LibModuleList
 0001:00000130       System.LoadLibraryEx
 0001:000041FC       System.LoadResourceModule
 0001:000045E4       System.LoadResString
 0001:00000138       System.LoadString
 0001:0000022C       System.LockCmpxchg
 0001:00001394       System.LockExpectedMemoryLeaksList
 0001:0000053C       System.LockLargeBlocks
 0001:00000140       System.lstrcpyn
 0004:0000002C       System.MainInstance
 0004:00000030       System.MainThreadID
 0001:000036E4       System.MakeErrorMessage
 0001:00003404       System.MapToRunError
 0004:00000720       System.MediumBlockBinBitmaps
 0004:0000071C       System.MediumBlockBinGroupBitmap
 0004:000007A0       System.MediumBlockBins
 0004:00000700       System.MediumBlockPoolsCircularList
 0004:00000710       System.MediumBlocksLocked
 0004:00000718       System.MediumSequentialFeedBytesLeft
 0003:00000714       System.MemoryManager
 0001:000000D0       System.MessageBox
 0004:000006FE       System.MinimumBlockAlignment
 0004:000027BC       System.MMSharingWindow
 0003:0000002C       System.ModuleUnloadList
 0001:00001E2C       System.Move
 0001:00000234       System.Move12
 0001:00000248       System.Move20
 0001:00000268       System.Move28
 0001:00000294       System.Move36
 0001:000002B4       System.Move44
 0001:000002D8       System.Move52
 0001:00000304       System.Move60
 0001:00000334       System.Move68
 0001:0000036C       System.MoveX16L4
 0001:0000039C       System.MoveX8L4
 0004:000005AD       System.NeverSleepOnMMThreadContention
 0001:0000109C       System.NextMediumBlock
 0003:00000020       System.NoErrMsg
 0001:00002F2C       System.NotifyAnyExcept
 0001:00002F00       System.NotifyExcept
 0001:00002F60       System.NotifyExceptFinally
 0001:000044F0       System.NotifyModuleUnload
 0001:00002EDC       System.NotifyNonDelphiException
 0001:00002F18       System.NotifyOnExcept
 0001:00002EC0       System.NotifyReRaise
 0001:00002F88       System.NotifyTerminate
 0001:00002FA4       System.NotifyUnhandled
 0001:000020E8       System.OpenText
 0004:00000214       System.Output
 0001:00002028       System.ParamCount
 0001:00002088       System.ParamStr
 0001:00000088       System.RaiseException
 0004:00000014       System.RaiseExceptionProc
 0005:00000000       System.RaiseListPtr
 0001:00000090       System.ReadFile
 0001:0000068C       System.ReallocateLargeBlock
 0001:00000150       System.RegCloseKey
 0001:0000454C       System.RegisterModule
 0001:00000158       System.RegOpenKeyEx
 0001:00000160       System.RegQueryValueEx
 0003:0000072C       System.reMap
 0001:000003B8       System.RemoveMediumFreeBlock
 0001:0000448C       System.RemoveModuleUnloadProc
 0004:000005AC       System.ReportMemoryLeaksOnShutdown
 0001:00000098       System.RtlUnwind
 0004:00000018       System.RTLUnwindProc
 0003:00000750       System.runErrMsg
 0001:00001D78       System.RunErrorAt
 0001:000015EC       System.ScanForMemoryLeaks
 0001:000000A0       System.SetEndOfFile
 0001:00003544       System.SetExceptionHandler
 0001:000000A8       System.SetFilePointer
 0001:00001DFC       System.SetInOutRes
 0001:000001BC       System.Sleep
 0003:00000034       System.SmallBlockTypes
 0001:0000106C       System.SysAllocMem
 0001:00000B5C       System.SysFreeMem
 0001:00000178       System.SysFreeString
 0001:000007D8       System.SysGetMem
 0001:00000D54       System.SysReallocMem
 0001:00001408       System.SysRegisterExpectedMemoryLeak
 0002:00000000       System.System
 0001:00001448       System.SysUnregisterExpectedMemoryLeak
 0004:00000046       System.Test8086
 0001:000021E4       System.TextClose
 0001:00002158       System.TextIn
 0001:00002204       System.TextOpen
 0001:00002198       System.TextOut
 0001:00002DD8       System.TObject.AfterConstruction
 0001:00002DDC       System.TObject.BeforeDestruction
 0001:00002C84       System.TObject.ClassName
 0001:00002D44       System.TObject.CleanupInstance
 0001:00002DD4       System.TObject.DefaultHandler
 0001:00002CD0       System.TObject.Destroy
 0001:00002DE0       System.TObject.Dispatch
 0001:00002CE0       System.TObject.Free
 0001:00002CB4       System.TObject.FreeInstance
 0001:00002DB8       System.TObject.InheritsFrom
 0001:00002CEC       System.TObject.InitInstance
 0001:00002CC8       System.TObject.InstanceSize
 0001:00002C98       System.TObject.NewInstance
 0001:00002DCC       System.TObject.SafeCallException
 0001:00004038       System.ToLongPath
 0001:00002574       System.TryOpenForInput
 0001:00002720       System.TryOpenForOutput
 0001:000000B0       System.UnhandledExceptionFilter
 0001:0000455C       System.UnregisterModule
 0001:00003564       System.UnsetExceptionHandler
 0003:0000000C       System.VarClearProc
 0003:00000010       System.VarToLStrProc
 0001:000001AC       System.VirtualAlloc
 0001:000001B4       System.VirtualFree
 0001:00000170       System.VirtualQuery
 0001:00000168       System.WideCharToMultiByte
 0001:00003778       System.WriteErrorMessage
 0001:000000B8       System.WriteFile
 0004:00002910       SysUtils..35
 0001:00005388       SysUtils..EAbstractError
 0001:00005160       SysUtils..EAccessViolation
 0001:00005328       SysUtils..EAssertionFailed
 0001:00005274       SysUtils..EControlC
 0001:00005104       SysUtils..EConvertError
 0001:00004D88       SysUtils..EDivByZero
 0001:00004C78       SysUtils..EExternal
 0001:00004CD0       SysUtils..EExternalException
 0001:00004B68       SysUtils..EHeapException
 0001:00004C20       SysUtils..EInOutError
 0001:00004D30       SysUtils..EIntError
 0001:000053E4       SysUtils..EIntfCastError
 0001:00004E38       SysUtils..EIntOverflow
 0001:000050A8       SysUtils..EInvalidCast
 0001:00004EEC       SysUtils..EInvalidOp
 0001:0000504C       SysUtils..EInvalidPointer
 0001:00004E94       SysUtils..EMathError
 0001:00004BC4       SysUtils..EOutOfMemory
 0001:00004F9C       SysUtils..EOverflow
 0001:000051C0       SysUtils..EPrivilege
 0001:00004DE0       SysUtils..ERangeError
 0001:00005440       SysUtils..ESafecallException
 0001:00005218       SysUtils..EStackOverflow
 0001:00004FF4       SysUtils..EUnderflow
 0001:000052CC       SysUtils..EVariantError
 0001:00004B00       SysUtils..Exception
 0001:00004F44       SysUtils..EZeroDivide
 0001:00006E70       SysUtils.AbstractErrorHandler
 0001:0000746C       SysUtils.AnsiStrRScan
 0001:000074A0       SysUtils.AnsiStrScan
 0001:00006E54       SysUtils.AssertErrorHandler
 0001:00005794       SysUtils.BackfillGetDiskFreeSpaceEx
 0001:000073D8       SysUtils.ByteType
 0001:00007364       SysUtils.ByteTypeTest
 0001:00007434       SysUtils.CharLength
 0001:00007B9C       SysUtils.ClearHashTables
 0001:000068B4       SysUtils.ConvertAddr
 0001:000054F4       SysUtils.ConvertErrorFmt
 0001:00006D98       SysUtils.CreateAssertException
 0001:00006F20       SysUtils.CreateAVObject
 0001:00006CC8       SysUtils.CreateInOutError
 0003:000007E4       SysUtils.cSimpleBoolStrs
 0004:00002808       SysUtils.CurrencyDecimals
 0004:00002804       SysUtils.CurrencyFormat
 0004:00002800       SysUtils.CurrencyString
 0001:000055A0       SysUtils.CvtInt
 0001:0000560C       SysUtils.CvtInt64
 0004:00002809       SysUtils.DateSeparator
 0003:00000800       SysUtils.DCon10
 0004:00002807       SysUtils.DecimalSeparator
 0003:00000880       SysUtils.DefLongDayNames
 0003:00000834       SysUtils.DefLongMonthNames
 0003:00000864       SysUtils.DefShortDayNames
 0003:00000804       SysUtils.DefShortMonthNames
 0001:00007248       SysUtils.DoneExceptions
 0001:00006C9C       SysUtils.EHeapException.FreeInstance
 0003:000007A0       SysUtils.EmptyStr
 0003:000007A4       SysUtils.EmptyWideStr
 0001:00006520       SysUtils.EnumEraNames
 0001:0000655C       SysUtils.EnumEraYearOffsets
 0004:000028D0       SysUtils.EraNames
 0004:000028EC       SysUtils.EraYearOffsets
 0001:00006D48       SysUtils.ErrorHandler
 0003:0000089C       SysUtils.ErrorMap
 0001:000071B4       SysUtils.ExceptHandler
 0001:00006B10       SysUtils.Exception.Create
 0001:00006B4C       SysUtils.Exception.CreateFmt
 0001:00006BCC       SysUtils.Exception.CreateRes
 0001:00006C08       SysUtils.Exception.CreateResFmt
 0001:000068C0       SysUtils.ExceptionErrorMessage
 0003:000008D4       SysUtils.ExceptMap
 0001:0000575C       SysUtils.ExtractFileName
 0004:0000290C       SysUtils.FalseBoolStrs
 0003:000007F4       SysUtils.FCon1E18
 0001:00007E9C       SysUtils.Finalization
 0004:00004904       SysUtils.FLanguages
 0001:0000611C       SysUtils.FloatToDecimal
 0001:00005E48       SysUtils.FloatToText
 0001:00005D28       SysUtils.FmtStr
 0001:00005D14       SysUtils.Format
 0001:0000595C       SysUtils.FormatBuf
 0001:00005950       SysUtils.FormatClearStr
 0001:000058D4       SysUtils.FormatError
 0003:000007EC       SysUtils.FormatErrorStrs
 0001:0000592C       SysUtils.FormatVarToStr
 0001:00007B8C       SysUtils.FreeAndNil
 0001:00007B0C       SysUtils.FreeTerminateProcs
 0003:000007E0       SysUtils.GetDiskFreeSpaceEx
 0001:000065D4       SysUtils.GetEraNamesAndYearOffsets
 0001:00006F08       SysUtils.GetExceptionClass
 0001:000070EC       SysUtils.GetExceptionObject
 0001:00007600       SysUtils.GetFormatSettings
 0001:00006394       SysUtils.GetLocaleChar
 0001:00006348       SysUtils.GetLocaleStr
 0001:000063FC       SysUtils.GetMonthDayNames
 0001:000079CC       SysUtils.HashName
 0003:000007DC       SysUtils.HexDisplayPrefix
 0001:00007B30       SysUtils.InitDriveSpacePtr
 0001:000071C4       SysUtils.InitExceptions
 0001:000074E0       SysUtils.InitLeadBytes
 0001:000072F4       SysUtils.InitPlatformId
 0001:0000753C       SysUtils.InitSysLocale
 0001:000055EC       SysUtils.IntToStr
 0004:00002918       SysUtils.InvalidPointer
 0001:00005708       SysUtils.LastDelimiter
 0003:000007BC       SysUtils.LeadBytes
 0004:000028CE       SysUtils.ListSeparator
 0001:000063C0       SysUtils.LocalGetLocaleStr
 0004:00002810       SysUtils.LongDateFormat
 0004:000028A4       SysUtils.LongDayNames
 0004:00002858       SysUtils.LongMonthNames
 0004:00002824       SysUtils.LongTimeFormat
 0001:00006E88       SysUtils.MapException
 0001:000079F4       SysUtils.ModuleUnloaded
 0004:00002805       SysUtils.NegCurrFormat
 0004:00002914       SysUtils.OutOfMemory
 0001:00005E04       SysUtils.PutExponent
 0001:00006E44       SysUtils.RaiseAssertException
 0004:0000280C       SysUtils.ShortDateFormat
 0004:00002888       SysUtils.ShortDayNames
 0004:00002828       SysUtils.ShortMonthNames
 0004:00002820       SysUtils.ShortTimeFormat
 0001:00006A48       SysUtils.ShowException
 0001:000073FC       SysUtils.StrByteType
 0001:00007414       SysUtils.StrCharLength
 0001:00005848       SysUtils.StrLCopy
 0001:00005808       SysUtils.StrLen
 0001:00005CD4       SysUtils.StrLFmt
 0001:0000587C       SysUtils.StrLIComp
 0001:00005838       SysUtils.StrMove
 0001:000058C0       SysUtils.StrScan
 0001:000056D8       SysUtils.StrToIntDef
 0004:000028C0       SysUtils.SysLocale
 0002:000000AC       SysUtils.SysUtils
 0003:00000984       SysUtils.TerminateProcList
 0004:00002806       SysUtils.ThousandSeparator
 0004:00002818       SysUtils.TimeAMString
 0004:0000281C       SysUtils.TimePMString
 0004:00002814       SysUtils.TimeSeparator
 0001:00006684       SysUtils.TranslateDateFormat
 0004:00002908       SysUtils.TrueBoolStrs
 0004:00003910       SysUtils.UnitHashBuckets
 0001:00005518       SysUtils.UpperCase
 0004:0000291C       SysUtils.ValidatedUnitHashBuckets
 0003:000007B4       SysUtils.Win32BuildNumber
 0003:000007B8       SysUtils.Win32CSDVersion
 0003:000007AC       SysUtils.Win32MajorVersion
 0003:000007B0       SysUtils.Win32MinorVersion
 0003:000007A8       SysUtils.Win32Platform
 0004:000027F8       Windows..3
 0001:00004A94       Windows.CharNext
 0001:00004A9C       Windows.CharToOemA
 0001:00004A2C       Windows.EnumCalendarInfoA
 0001:00004ABC       Windows.Finalization
 0001:00004A34       Windows.FreeLibrary
 0001:00004A3C       Windows.GetCPInfo
 0001:00004A44       Windows.GetDiskFreeSpaceA
 0001:00004A4C       Windows.GetLocaleInfo
 0001:00004A54       Windows.GetModuleFileName
 0001:00004A5C       Windows.GetModuleHandle
 0001:00004A64       Windows.GetProcAddress
 0001:00004A6C       Windows.GetStdHandle
 0001:00004AA4       Windows.GetSystemMetrics
 0001:00004A74       Windows.GetThreadLocale
 0001:00004A7C       Windows.GetVersionEx
 0004:000027FC       Windows.HtmlHelpModule
 0001:00004AAC       Windows.LoadString
 0001:00004AB4       Windows.MessageBox
 0001:00004A84       Windows.VirtualQuery
 0002:00000098       Windows.Windows
 0001:00004A8C       Windows.WriteFile


  Address             Publics by Value

 0001:0000000C       System..TObject
 0001:00000060       System.CloseHandle
 0001:00000068       System.CreateFileA
 0001:00000070       System.GetFileType
 0001:00000078       System.GetFileSize
 0001:00000080       System.GetStdHandle
 0001:00000088       System.RaiseException
 0001:00000090       System.ReadFile
 0001:00000098       System.RtlUnwind
 0001:000000A0       System.SetEndOfFile
 0001:000000A8       System.SetFilePointer
 0001:000000B0       System.UnhandledExceptionFilter
 0001:000000B8       System.WriteFile
 0001:000000C0       System.CharNext
 0001:000000C8       System.ExitProcess
 0001:000000D0       System.MessageBox
 0001:000000D8       System.FindClose
 0001:000000E0       System.FindFirstFile
 0001:000000E8       System.FreeLibrary
 0001:000000F0       System.GetCommandLine
 0001:000000F8       System.GetLastError
 0001:00000100       System.GetLocaleInfo
 0001:00000108       System.GetModuleFileName
 0001:00000110       System.GetModuleHandle
 0001:00000118       System.GetProcAddress
 0001:00000120       System.GetStartupInfo
 0001:00000128       System.GetThreadLocale
 0001:00000130       System.LoadLibraryEx
 0001:00000138       System.LoadString
 0001:00000140       System.lstrcpyn
 0001:00000148       System.@strlen
 0001:00000150       System.RegCloseKey
 0001:00000158       System.RegOpenKeyEx
 0001:00000160       System.RegQueryValueEx
 0001:00000168       System.WideCharToMultiByte
 0001:00000170       System.VirtualQuery
 0001:00000178       System.SysFreeString
 0001:00000180       System.GetCurrentThreadId
 0001:00000188       System.GetCmdShow
 0001:000001AC       System.VirtualAlloc
 0001:000001B4       System.VirtualFree
 0001:000001BC       System.Sleep
 0001:000001C4       System.DestroyWindow
 0001:0000022C       System.LockCmpxchg
 0001:00000234       System.Move12
 0001:00000248       System.Move20
 0001:00000268       System.Move28
 0001:00000294       System.Move36
 0001:000002B4       System.Move44
 0001:000002D8       System.Move52
 0001:00000304       System.Move60
 0001:00000334       System.Move68
 0001:0000036C       System.MoveX16L4
 0001:0000039C       System.MoveX8L4
 0001:000003B8       System.RemoveMediumFreeBlock
 0001:000003F8       System.InsertMediumBlockIntoBin
 0001:00000458       System.BinMediumSequentialFeedRemainder
 0001:000004C4       System.AllocNewSequentialFeedMediumPool
 0001:0000053C       System.LockLargeBlocks
 0001:00000584       System.AllocateLargeBlock
 0001:000005E8       System.FreeLargeBlock
 0001:0000068C       System.ReallocateLargeBlock
 0001:000007D8       System.SysGetMem
 0001:00000B5C       System.SysFreeMem
 0001:00000D54       System.SysReallocMem
 0001:0000106C       System.SysAllocMem
 0001:0000109C       System.NextMediumBlock
 0001:000010C0       System.GetFirstMediumBlockInPool
 0001:00001100       System.GetFirstAndLastSmallBlockInPool
 0001:0000113C       System.CardinalToStrBuf
 0001:00001258       System.AppendStringToBuffer
 0001:00001270       System.IsValidVMTAddress
 0001:000012EC       System.InternalIsValidClass
 0001:0000136C       System.GetObjectClass
 0001:00001394       System.LockExpectedMemoryLeaksList
 0001:00001408       System.SysRegisterExpectedMemoryLeak
 0001:00001448       System.SysUnregisterExpectedMemoryLeak
 0001:000014A0       System.CheckSmallBlockPoolForLeaks
 0001:000015EC       System.ScanForMemoryLeaks
 0001:00001A64       System.BuildBlockTypeLookupTable
 0001:00001AA8       System.InitializeMemoryManager
 0001:00001BD0       System.FreeAllMemory
 0001:00001C60       System.FinalizeMemoryManager
 0001:00001CB4       System.@GetMem
 0001:00001CD0       System.@FreeMem
 0001:00001CE8       System.@ReallocMem
 0001:00001D38       System.ExceptObject
 0001:00001D58       System.ExceptAddr
 0001:00001D78       System.RunErrorAt
 0001:00001D84       System.ErrorAt
 0001:00001DD0       System.Error
 0001:00001DDC       System.@_IOTest
 0001:00001DFC       System.SetInOutRes
 0001:00001E0C       System.IOResult
 0001:00001E2C       System.Move
 0001:00001F2C       System.GetParamStr
 0001:00002028       System.ParamCount
 0001:00002088       System.ParamStr
 0001:000020E8       System.OpenText
 0001:00002140       System.@ResetText
 0001:0000214C       System.@RewritText
 0001:00002158       System.TextIn
 0001:00002194       System.FileNOPProc
 0001:00002198       System.TextOut
 0001:000021D4       System.InternalClose
 0001:000021E4       System.TextClose
 0001:00002204       System.TextOpen
 0001:000023B0       System.InternalFlush
 0001:000023F8       System.Flush
 0001:00002404       System.@Flush
 0001:00002410       System.@Close
 0001:00002468       System.@AStrCmp
 0001:000024D8       System.@FillChar
 0001:00002574       System.TryOpenForInput
 0001:000025B0       System.@ReadChar
 0001:0000261C       System.@ReadLn
 0001:0000264C       System.@ValLong
 0001:00002720       System.TryOpenForOutput
 0001:00002764       System.@WriteBytes
 0001:000027B8       System.@WriteSpaces
 0001:00002834       System.@Write0String
 0001:00002840       System.@WriteLn
 0001:00002888       System.FPower10
 0001:00002890       System.@Pow10
 0001:00002B74       System.GetKeyboardType
 0001:00002B7C       System.@isNECWindows
 0001:00002BAC       System.@FpuMaskInit
 0001:00002C70       System.@FpuInit
 0001:00002C7C       System.@IntOver
 0001:00002C84       System.TObject.ClassName
 0001:00002C98       System.TObject.NewInstance
 0001:00002CB4       System.TObject.FreeInstance
 0001:00002CC8       System.TObject.InstanceSize
 0001:00002CD0       System.TObject.Destroy
 0001:00002CE0       System.TObject.Free
 0001:00002CEC       System.TObject.InitInstance
 0001:00002D44       System.TObject.CleanupInstance
 0001:00002D64       System.@IsClass
 0001:00002D88       System.GetDynaMethod
 0001:00002DB8       System.TObject.InheritsFrom
 0001:00002DCC       System.TObject.SafeCallException
 0001:00002DD4       System.TObject.DefaultHandler
 0001:00002DD8       System.TObject.AfterConstruction
 0001:00002DDC       System.TObject.BeforeDestruction
 0001:00002DE0       System.TObject.Dispatch
 0001:00002E08       System.@ClassCreate
 0001:00002E58       System.@ClassDestroy
 0001:00002E60       System.@AfterConstruction
 0001:00002EB0       System.@BeforeDestruction
 0001:00002EC0       System.NotifyReRaise
 0001:00002EDC       System.NotifyNonDelphiException
 0001:00002F00       System.NotifyExcept
 0001:00002F18       System.NotifyOnExcept
 0001:00002F2C       System.NotifyAnyExcept
 0001:00002F40       System.CheckJmp
 0001:00002F60       System.NotifyExceptFinally
 0001:00002F88       System.NotifyTerminate
 0001:00002FA4       System.NotifyUnhandled
 0001:00002FC4       System.@HandleAnyException
 0001:000030F0       System.@HandleOnException
 0001:00003278       System.@HandleFinally
 0001:00003320       System.@HandleFinallyInternal
 0001:00003358       System.@RaiseExcept
 0001:00003380       System.@RaiseAgain
 0001:000033D4       System.@DoneExcept
 0001:00003404       System.MapToRunError
 0001:000034A4       System.@ExceptionHandler
 0001:00003544       System.SetExceptionHandler
 0001:00003564       System.UnsetExceptionHandler
 0001:0000358C       System.FinalizeUnits
 0001:000035F0       System.InitUnits
 0001:00003658       System.@StartExe
 0001:00003698       System.@InitResStringImports
 0001:000036C0       System.@InitImports
 0001:000036E4       System.MakeErrorMessage
 0001:00003748       System.ExitDll
 0001:00003778       System.WriteErrorMessage
 0001:00003804       System.@Halt0
 0001:000038E0       System.@Halt
 0001:000038EC       System.@RunError
 0001:000038F8       System.@LStrClr
 0001:0000391C       System.@LStrArrayClr
 0001:0000394C       System.@LStrAsg
 0001:00003990       System.@LStrLAsg
 0001:000039BC       System.@NewAnsiString
 0001:000039E8       System.@LStrFromPCharLen
 0001:00003A18       System.CharFromWChar
 0001:00003A38       System.@LStrFromPWCharLen
 0001:00003AC4       System.@LStrFromChar
 0001:00003AD4       System.@LStrFromPChar
 0001:00003B04       System.@LStrFromPWChar
 0001:00003B40       System.@LStrFromArray
 0001:00003B58       System.@LStrFromWStr
 0001:00003B6C       System.@LStrLen
 0001:00003B78       System.@LStrCat
 0001:00003BC4       System.@LStrCatN
 0001:00003C58       System.@LStrCmp
 0001:00003CB0       System.@LStrToPChar
 0001:00003CC4       System.@LStrCopy
 0001:00003D04       System.@LStrSetLength
 0001:00003D68       System.@Write0LString
 0001:00003D70       System.@WriteLString
 0001:00003D90       System.@WStrClr
 0001:00003DA8       System.@WStrArrayClr
 0001:00003DCC       System.@FinalizeRecord
 0001:00003E00       System.@VarClr
 0001:00003E18       System.@FinalizeArray
 0001:00003F04       System.@Finalize
 0001:00003F10       System.@Dispose
 0001:00003F20       System.@DispCallByIDError
 0001:00003F28       System.@_llmul
 0001:00003F4C       System.@DynArrayLength
 0001:00003F54       System.@DynArrayHigh
 0001:00003F5C       System.@DynArrayClear
 0001:00003F98       System.DelayLoadResourceModule
 0001:00003FE0       System.FindResourceHInstance
 0001:00004018       System.FindBS
 0001:00004038       System.ToLongPath
 0001:000041FC       System.LoadResourceModule
 0001:0000446C       System.AddModuleUnloadProc
 0001:0000448C       System.RemoveModuleUnloadProc
 0001:000044F0       System.NotifyModuleUnload
 0001:0000454C       System.RegisterModule
 0001:0000455C       System.UnregisterModule
 0001:000045CC       System.@IntfClear
 0001:000045E4       System.LoadResString
 0001:0000463C       System.GetACP
 0001:00004644       System.Finalization
 0001:000046A4       SysInit.GetModuleHandle
 0001:000046AC       SysInit.LocalAlloc
 0001:000046B4       SysInit.TlsGetValue
 0001:000046BC       SysInit.TlsSetValue
 0001:000046C4       SysInit.AllocTlsBuffer
 0001:000046D0       SysInit.GetTlsSize
 0001:000046D8       SysInit.InitThreadTLS
 0001:0000471C       SysInit.@GetTls
 0001:0000475C       SysInit.InitializeModule
 0001:00004768       SysInit.@InitExe
 0001:00004A2C       Windows.EnumCalendarInfoA
 0001:00004A34       Windows.FreeLibrary
 0001:00004A3C       Windows.GetCPInfo
 0001:00004A44       Windows.GetDiskFreeSpaceA
 0001:00004A4C       Windows.GetLocaleInfo
 0001:00004A54       Windows.GetModuleFileName
 0001:00004A5C       Windows.GetModuleHandle
 0001:00004A64       Windows.GetProcAddress
 0001:00004A6C       Windows.GetStdHandle
 0001:00004A74       Windows.GetThreadLocale
 0001:00004A7C       Windows.GetVersionEx
 0001:00004A84       Windows.VirtualQuery
 0001:00004A8C       Windows.WriteFile
 0001:00004A94       Windows.CharNext
 0001:00004A9C       Windows.CharToOemA
 0001:00004AA4       Windows.GetSystemMetrics
 0001:00004AAC       Windows.LoadString
 0001:00004AB4       Windows.MessageBox
 0001:00004ABC       Windows.Finalization
 0001:00004B00       SysUtils..Exception
 0001:00004B68       SysUtils..EHeapException
 0001:00004BC4       SysUtils..EOutOfMemory
 0001:00004C20       SysUtils..EInOutError
 0001:00004C78       SysUtils..EExternal
 0001:00004CD0       SysUtils..EExternalException
 0001:00004D30       SysUtils..EIntError
 0001:00004D88       SysUtils..EDivByZero
 0001:00004DE0       SysUtils..ERangeError
 0001:00004E38       SysUtils..EIntOverflow
 0001:00004E94       SysUtils..EMathError
 0001:00004EEC       SysUtils..EInvalidOp
 0001:00004F44       SysUtils..EZeroDivide
 0001:00004F9C       SysUtils..EOverflow
 0001:00004FF4       SysUtils..EUnderflow
 0001:0000504C       SysUtils..EInvalidPointer
 0001:000050A8       SysUtils..EInvalidCast
 0001:00005104       SysUtils..EConvertError
 0001:00005160       SysUtils..EAccessViolation
 0001:000051C0       SysUtils..EPrivilege
 0001:00005218       SysUtils..EStackOverflow
 0001:00005274       SysUtils..EControlC
 0001:000052CC       SysUtils..EVariantError
 0001:00005328       SysUtils..EAssertionFailed
 0001:00005388       SysUtils..EAbstractError
 0001:000053E4       SysUtils..EIntfCastError
 0001:00005440       SysUtils..ESafecallException
 0001:000054F4       SysUtils.ConvertErrorFmt
 0001:00005518       SysUtils.UpperCase
 0001:000055A0       SysUtils.CvtInt
 0001:000055EC       SysUtils.IntToStr
 0001:0000560C       SysUtils.CvtInt64
 0001:000056D8       SysUtils.StrToIntDef
 0001:00005708       SysUtils.LastDelimiter
 0001:0000575C       SysUtils.ExtractFileName
 0001:00005794       SysUtils.BackfillGetDiskFreeSpaceEx
 0001:00005808       SysUtils.StrLen
 0001:00005838       SysUtils.StrMove
 0001:00005848       SysUtils.StrLCopy
 0001:0000587C       SysUtils.StrLIComp
 0001:000058C0       SysUtils.StrScan
 0001:000058D4       SysUtils.FormatError
 0001:0000592C       SysUtils.FormatVarToStr
 0001:00005950       SysUtils.FormatClearStr
 0001:0000595C       SysUtils.FormatBuf
 0001:00005CD4       SysUtils.StrLFmt
 0001:00005D14       SysUtils.Format
 0001:00005D28       SysUtils.FmtStr
 0001:00005E04       SysUtils.PutExponent
 0001:00005E48       SysUtils.FloatToText
 0001:0000611C       SysUtils.FloatToDecimal
 0001:00006348       SysUtils.GetLocaleStr
 0001:00006394       SysUtils.GetLocaleChar
 0001:000063C0       SysUtils.LocalGetLocaleStr
 0001:000063FC       SysUtils.GetMonthDayNames
 0001:00006520       SysUtils.EnumEraNames
 0001:0000655C       SysUtils.EnumEraYearOffsets
 0001:000065D4       SysUtils.GetEraNamesAndYearOffsets
 0001:00006684       SysUtils.TranslateDateFormat
 0001:000068B4       SysUtils.ConvertAddr
 0001:000068C0       SysUtils.ExceptionErrorMessage
 0001:00006A48       SysUtils.ShowException
 0001:00006B10       SysUtils.Exception.Create
 0001:00006B4C       SysUtils.Exception.CreateFmt
 0001:00006BCC       SysUtils.Exception.CreateRes
 0001:00006C08       SysUtils.Exception.CreateResFmt
 0001:00006C9C       SysUtils.EHeapException.FreeInstance
 0001:00006CC8       SysUtils.CreateInOutError
 0001:00006D48       SysUtils.ErrorHandler
 0001:00006D98       SysUtils.CreateAssertException
 0001:00006E44       SysUtils.RaiseAssertException
 0001:00006E54       SysUtils.AssertErrorHandler
 0001:00006E70       SysUtils.AbstractErrorHandler
 0001:00006E88       SysUtils.MapException
 0001:00006F08       SysUtils.GetExceptionClass
 0001:00006F20       SysUtils.CreateAVObject
 0001:000070EC       SysUtils.GetExceptionObject
 0001:000071B4       SysUtils.ExceptHandler
 0001:000071C4       SysUtils.InitExceptions
 0001:00007248       SysUtils.DoneExceptions
 0001:000072F4       SysUtils.InitPlatformId
 0001:00007364       SysUtils.ByteTypeTest
 0001:000073D8       SysUtils.ByteType
 0001:000073FC       SysUtils.StrByteType
 0001:00007414       SysUtils.StrCharLength
 0001:00007434       SysUtils.CharLength
 0001:0000746C       SysUtils.AnsiStrRScan
 0001:000074A0       SysUtils.AnsiStrScan
 0001:000074E0       SysUtils.InitLeadBytes
 0001:0000753C       SysUtils.InitSysLocale
 0001:00007600       SysUtils.GetFormatSettings
 0001:000079CC       SysUtils.HashName
 0001:000079F4       SysUtils.ModuleUnloaded
 0001:00007B0C       SysUtils.FreeTerminateProcs
 0001:00007B30       SysUtils.InitDriveSpacePtr
 0001:00007B8C       SysUtils.FreeAndNil
 0001:00007B9C       SysUtils.ClearHashTables
 0001:00007E9C       SysUtils.Finalization
 0001:0000802C       Mag_App_AnnotBurnImage.Delphi_MakeAnnotatedFile
 0001:00008034       Mag_App_AnnotBurnImage.Delphi_AnnotatedJobCompleted
 0001:0000803C       Mag_App_AnnotBurnImage.Delphi_TestConnection
 0001:00008044       Mag_App_AnnotBurnImage.Finalization
 0002:00000000       System.System
 0002:00000098       Windows.Windows
 0002:000000AC       SysUtils.SysUtils
 0002:00000134       Mag_App_AnnotBurnImage.Mag_App_AnnotBurnImage
 0003:00000000       System.ExitCode
 0003:00000004       System.ErrorAddr
 0003:00000008       System.FileMode
 0003:0000000C       System.VarClearProc
 0003:00000010       System.VarToLStrProc
 0003:00000014       System.Default8087CW
 0003:00000018       System.DebugHook
 0003:0000001C       System.JITEnable
 0003:00000020       System.NoErrMsg
 0003:00000024       System.DefaultTextLineBreakStyle
 0003:00000028       System.LibModuleList
 0003:0000002C       System.ModuleUnloadList
 0003:00000030       System.Copyright
 0003:00000034       System.SmallBlockTypes
 0003:00000714       System.MemoryManager
 0003:0000072C       System.reMap
 0003:00000748       System.errCaption
 0003:00000750       System.runErrMsg
 0003:00000770       System.dig
 0003:00000780       SysInit.TlsIndex
 0003:00000784       SysInit.PtrToNil
 0003:00000788       SysInit.Module
 0003:000007A0       SysUtils.EmptyStr
 0003:000007A4       SysUtils.EmptyWideStr
 0003:000007A8       SysUtils.Win32Platform
 0003:000007AC       SysUtils.Win32MajorVersion
 0003:000007B0       SysUtils.Win32MinorVersion
 0003:000007B4       SysUtils.Win32BuildNumber
 0003:000007B8       SysUtils.Win32CSDVersion
 0003:000007BC       SysUtils.LeadBytes
 0003:000007DC       SysUtils.HexDisplayPrefix
 0003:000007E0       SysUtils.GetDiskFreeSpaceEx
 0003:000007E4       SysUtils.cSimpleBoolStrs
 0003:000007EC       SysUtils.FormatErrorStrs
 0003:000007F4       SysUtils.FCon1E18
 0003:00000800       SysUtils.DCon10
 0003:00000804       SysUtils.DefShortMonthNames
 0003:00000834       SysUtils.DefLongMonthNames
 0003:00000864       SysUtils.DefShortDayNames
 0003:00000880       SysUtils.DefLongDayNames
 0003:0000089C       SysUtils.ErrorMap
 0003:000008D4       SysUtils.ExceptMap
 0003:00000984       SysUtils.TerminateProcList
 0004:00000000       System.DispCallByIDProc
 0004:00000004       System.ExceptProc
 0004:00000008       System.ErrorProc
 0004:0000000C       System.ExceptClsProc
 0004:00000010       System.ExceptObjProc
 0004:00000014       System.RaiseExceptionProc
 0004:00000018       System.RTLUnwindProc
 0004:0000001C       System.ExceptionClass
 0004:00000020       System.AssertErrorProc
 0004:00000024       System.ExitProcessProc
 0004:00000028       System.AbstractErrorProc
 0004:0000002C       System.MainInstance
 0004:00000030       System.MainThreadID
 0004:00000034       System.IsLibrary
 0004:00000038       System.CmdShow
 0004:0000003C       System.CmdLine
 0004:00000040       System.ExitProc
 0004:00000044       System.IsConsole
 0004:00000045       System.IsMultiThread
 0004:00000046       System.Test8086
 0004:00000048       System.Input
 0004:00000214       System.Output
 0004:000003E0       System.ErrOutput
 0004:000005AC       System.ReportMemoryLeaksOnShutdown
 0004:000005AD       System.NeverSleepOnMMThreadContention
 0004:000005B0       System..6
 0004:000005B4       System.DefaultSystemCodePage
 0004:000005B8       System.AllocSize2SmallBlockTypeIndX4
 0004:000006FE       System.MinimumBlockAlignment
 0004:00000700       System.MediumBlockPoolsCircularList
 0004:00000710       System.MediumBlocksLocked
 0004:00000714       System.LastSequentiallyFedMediumBlock
 0004:00000718       System.MediumSequentialFeedBytesLeft
 0004:0000071C       System.MediumBlockBinGroupBitmap
 0004:00000720       System.MediumBlockBinBitmaps
 0004:000007A0       System.MediumBlockBins
 0004:000027A0       System.LargeBlocksLocked
 0004:000027A4       System.LargeBlocksCircularList
 0004:000027B4       System.ExpectedMemoryLeaks
 0004:000027B8       System.ExpectedMemoryLeaksListLocked
 0004:000027BC       System.MMSharingWindow
 0004:000027C0       System.InitContext
 0004:000027EC       SysInit.ModuleIsLib
 0004:000027ED       SysInit.ModuleIsCpp
 0004:000027F0       SysInit.HInstance
 0004:000027F4       SysInit.tlsBuffer
 0004:000027F8       Windows..3
 0004:000027FC       Windows.HtmlHelpModule
 0004:00002800       SysUtils.CurrencyString
 0004:00002804       SysUtils.CurrencyFormat
 0004:00002805       SysUtils.NegCurrFormat
 0004:00002806       SysUtils.ThousandSeparator
 0004:00002807       SysUtils.DecimalSeparator
 0004:00002808       SysUtils.CurrencyDecimals
 0004:00002809       SysUtils.DateSeparator
 0004:0000280C       SysUtils.ShortDateFormat
 0004:00002810       SysUtils.LongDateFormat
 0004:00002814       SysUtils.TimeSeparator
 0004:00002818       SysUtils.TimeAMString
 0004:0000281C       SysUtils.TimePMString
 0004:00002820       SysUtils.ShortTimeFormat
 0004:00002824       SysUtils.LongTimeFormat
 0004:00002828       SysUtils.ShortMonthNames
 0004:00002858       SysUtils.LongMonthNames
 0004:00002888       SysUtils.ShortDayNames
 0004:000028A4       SysUtils.LongDayNames
 0004:000028C0       SysUtils.SysLocale
 0004:000028CE       SysUtils.ListSeparator
 0004:000028D0       SysUtils.EraNames
 0004:000028EC       SysUtils.EraYearOffsets
 0004:00002908       SysUtils.TrueBoolStrs
 0004:0000290C       SysUtils.FalseBoolStrs
 0004:00002910       SysUtils..35
 0004:00002914       SysUtils.OutOfMemory
 0004:00002918       SysUtils.InvalidPointer
 0004:0000291C       SysUtils.ValidatedUnitHashBuckets
 0004:00003910       SysUtils.UnitHashBuckets
 0004:00004904       SysUtils.FLanguages
 0004:00004908       Mag_App_AnnotBurnImage.JobID
 0004:0000490C       Mag_App_AnnotBurnImage.DebugMode
 0004:00004910       Mag_App_AnnotBurnImage.ImageFileFullPath
 0004:00004914       Mag_App_AnnotBurnImage.XMLFileFullPath
 0004:00004918       Mag_App_AnnotBurnImage.OutputBurnedImageFullPath
 0004:0000491C       Mag_App_AnnotBurnImage.ReturnCode
 0004:00004920       Mag_App_AnnotBurnImage.S
 0005:00000000       System.RaiseListPtr
 0005:00000004       System.InOutRes
 0005:00000008       SysInit.TlsLast


Line numbers for Mag_App_AnnotBurnImage(Mag_App_AnnotBurnImage.dpr) segment .text

    63 0001:0000802C    65 0001:00008034    67 0001:0000803C

Line numbers for Mag_App_AnnotBurnImage(Mag_App_AnnotBurnImage.dpr) segment .itext

    75 0002:00000134    76 0002:00000171    77 0002:0000017F    78 0002:0000018E
    79 0002:000001B3    80 0002:000001C2    81 0002:000001D1    86 0002:000001E0
    87 0002:000001E2    88 0002:00000204    90 0002:00000215    92 0002:00000226
    93 0002:00000235    96 0002:00000237    97 0002:00000248    98 0002:00000251
   100 0002:0000026C   102 0002:00000285   103 0002:00000295   102 0002:000002D4
   105 0002:000002D7   106 0002:000002E8   108 0002:00000302   110 0002:00000306
   111 0002:0000031F   115 0002:0000032E   123 0002:00000356   125 0002:0000035A
   126 0002:00000373   129 0002:00000382   131 0002:00000387   132 0002:00000398
   134 0002:000003D2   136 0002:000003D6   137 0002:000003EF   140 0002:000003FE
   141 0002:0000040F   143 0002:0000041B   146 0002:0000043D   148 0002:0000043F
   149 0002:00000478   152 0002:00000487

Bound resource files

Mag_App_AnnotBurnImage.drf


Program entry point at 0002:00000134
