 Send_Image

 Timestamp is 4d7a6073 (Fri Mar 11 12:48:35 2011)

 Preferred load address is 00400000

 Start         Length     Name                   Class
 0001:00000000 00050f9fH .text                   CODE
 0001:00050f9f 00020301H .textbss                CODE
 0002:00000000 00009c24H .rdata                  DATA
 0002:00009c24 00000000H .edata                  DATA
 0003:00000000 00000104H .CRT$XCA                DATA
 0003:00000104 00000104H .CRT$XCZ                DATA
 0003:00000208 00000104H .CRT$XIA                DATA
 0003:0000030c 00000109H .CRT$XIC                DATA
 0003:00000418 00000104H .CRT$XIZ                DATA
 0003:0000051c 00000104H .CRT$XPA                DATA
 0003:00000620 00000104H .CRT$XPX                DATA
 0003:00000724 00000104H .CRT$XPZ                DATA
 0003:00000828 00000104H .CRT$XTA                DATA
 0003:0000092c 00000104H .CRT$XTZ                DATA
 0003:00000a30 0003f883H .data                   DATA
 0003:000402b8 00009ad4H .bss                    DATA
 0004:00000000 00000028H .idata$2                DATA
 0004:00000028 00000014H .idata$3                DATA
 0004:0000003c 00000278H .idata$4                DATA
 0004:000002b4 00000278H .idata$5                DATA
 0004:0000052c 0000089bH .idata$6                DATA

  Address         Publics by Value              Rva+Base     Lib:Object

 0001:00000010       _main                      00401010 f   send_image.obj
 0001:00001cb0       _THR_Init                  00402cb0 f   ctn_lib:ctnthread.obj
 0001:00001d90       _THR_Shutdown              00402d90 f   ctn_lib:ctnthread.obj
 0001:00001e20       _THR_ObtainMutex           00402e20 f   ctn_lib:ctnthread.obj
 0001:00001eb0       _THR_ReleaseMutex          00402eb0 f   ctn_lib:ctnthread.obj
 0001:00001f00       _UTL_ConvertDatetoLong     00402f00 f   ctn_lib:utility.obj
 0001:00001fb0       _UTL_ConvertLongtoDate     00402fb0 f   ctn_lib:utility.obj
 0001:00002040       _UTL_ConvertTimetoFloat    00403040 f   ctn_lib:utility.obj
 0001:00002470       _UTL_ConvertFloattoTime    00403470 f   ctn_lib:utility.obj
 0001:00002530       _UTL_SqueezeBlanks         00403530 f   ctn_lib:utility.obj
 0001:000025a0       _UTL_DateMatch             004035a0 f   ctn_lib:utility.obj
 0001:00002730       _UTL_TimeMatch             00403730 f   ctn_lib:utility.obj
 0001:000028e0       _UTL_GetDicomDate          004038e0 f   ctn_lib:utility.obj
 0001:00002960       _UTL_GetDicomTime          00403960 f   ctn_lib:utility.obj
 0001:000029d0       _UTL_GetTimeStamp          004039d0 f   ctn_lib:utility.obj
 0001:00002a40       _UTL_DeltaTime             00403a40 f   ctn_lib:utility.obj
 0001:00002af0       _UTL_ReleaseTimeStamp      00403af0 f   ctn_lib:utility.obj
 0001:00002b50       _UTL_VerifyCreatePath      00403b50 f   ctn_lib:utility.obj
 0001:00002da0       _UTL_IsDirectory           00403da0 f   ctn_lib:utility.obj
 0001:00002e10       _UTL_ScanDirectory         00403e10 f   ctn_lib:utility.obj
 0001:00002f40       _UTL_ReadConfigFile        00403f40 f   ctn_lib:utility.obj
 0001:00003130       _UTL_SetConfigFile         00404130 f   ctn_lib:utility.obj
 0001:00003230       _UTL_TestConfigFile        00404230 f   ctn_lib:utility.obj
 0001:00003260       _UTL_GetConfigParameter    00404260 f   ctn_lib:utility.obj
 0001:000033c0       _UTL_ExpandToPointerArray  004043c0 f   ctn_lib:utility.obj
 0001:00003500       _UTL_IsFile                00404500 f   ctn_lib:utility.obj
 0001:00003570       _UTL_DeleteFile            00404570 f   ctn_lib:utility.obj
 0001:000035d0       _UTL_FileSize              004045d0 f   ctn_lib:utility.obj
 0001:00003630       _DUL_InitializeNetwork     00404630 f   ctn_lib:dulprotocol.obj
 0001:00003720       _DUL_DropNetwork           00404720 f   ctn_lib:dulprotocol.obj
 0001:000037d0       _DUL_RequestAssociation    004047d0 f   ctn_lib:dulprotocol.obj
 0001:00003d90       _DUL_RequestAssociationWithProxy 00404d90 f   ctn_lib:dulprotocol.obj
 0001:000040c0       _DUL_ReqAssocExternalSocket 004050c0 f   ctn_lib:dulprotocol.obj
 0001:000043b0       _DUL_ReceiveAssociationRQ  004053b0 f   ctn_lib:dulprotocol.obj
 0001:00004550       _DUL_ReceiveAssociationRQWithProxy 00405550 f   ctn_lib:dulprotocol.obj
 0001:00004860       _DUL_AcknowledgeAssociationRQ 00405860 f   ctn_lib:dulprotocol.obj
 0001:000048e0       _DUL_RejectAssociationRQ   004058e0 f   ctn_lib:dulprotocol.obj
 0001:00004aa0       _DUL_DropAssociation       00405aa0 f   ctn_lib:dulprotocol.obj
 0001:00004b40       _DUL_ReleaseAssociation    00405b40 f   ctn_lib:dulprotocol.obj
 0001:00004e50       _DUL_AcknowledgeRelease    00405e50 f   ctn_lib:dulprotocol.obj
 0001:00004f00       _DUL_AbortAssociation      00405f00 f   ctn_lib:dulprotocol.obj
 0001:000050b0       _DUL_WritePDVs             004060b0 f   ctn_lib:dulprotocol.obj
 0001:00005130       _DUL_ReadPDVs              00406130 f   ctn_lib:dulprotocol.obj
 0001:000052a0       _DUL_Debug                 004062a0 f   ctn_lib:dulprotocol.obj
 0001:00005300       _DUL_Blog                  00406300 f   ctn_lib:dulprotocol.obj
 0001:00005320       _DUL_AssociationParameter  00406320 f   ctn_lib:dulprotocol.obj
 0001:00005410       _DUL_NextPDV               00406410 f   ctn_lib:dulprotocol.obj
 0001:00005620       _DUL_ClearServiceParameters 00406620 f   ctn_lib:dulprotocol.obj
 0001:00005680       _DUL_DefaultServiceParameters 00406680 f   ctn_lib:dulprotocol.obj
 0001:00006400       _DUL_DumpParams            00407400 f   ctn_lib:dulprotocol.obj
 0001:00006b60       _SRV_RequestServiceClass   00407b60 f   ctn_lib:srv1.obj
 0001:00006e80       _SRV_RegisterSOPClass      00407e80 f   ctn_lib:srv1.obj
 0001:00007020       _SRV_RegisterSOPClassXfer  00408020 f   ctn_lib:srv1.obj
 0001:000071f0       _SRV_ProposeSOPClassWithXfer 004081f0 f   ctn_lib:srv1.obj
 0001:00007400       _SRV_AcceptServiceClass    00408400 f   ctn_lib:srv1.obj
 0001:00007990       _SRV_AcceptServiceClassWithOneXferSyntax 00408990 f   ctn_lib:srv1.obj
 0001:00007cc0       _SRV_AcceptSOPClass        00408cc0 f   ctn_lib:srv1.obj
 0001:00007f00       _SRV_AcceptSOPClassAsStorageClass 00408f00 f   ctn_lib:srv1.obj
 0001:00007f30       _SRV_RejectServiceClass    00408f30 f   ctn_lib:srv1.obj
 0001:00008060       _SRV_MessageIDOut          00409060 f   ctn_lib:srv1.obj
 0001:00008100       _SRV_MessageIDIn           00409100 f   ctn_lib:srv1.obj
 0001:00008120       _SRV_Debug                 00409120 f   ctn_lib:srv1.obj
 0001:00008150       _DCM_OpenFile              00409150 f   ctn_lib:dcm.obj
 0001:000083c0       _DCM_ReadStream            004093c0 f   ctn_lib:dcm.obj
 0001:000084a0       _DCM_CreateObject          004094a0 f   ctn_lib:dcm.obj
 0001:000086f0       _DCM_CloseObject           004096f0 f   ctn_lib:dcm.obj
 0001:00008a40       _DCM_AddElement            00409a40 f   ctn_lib:dcm.obj
 0001:00008cd0       _DCM_AddSequenceElement    00409cd0 f   ctn_lib:dcm.obj
 0001:00008f50       _DCM_RemoveElement         00409f50 f   ctn_lib:dcm.obj
 0001:00009290       _DCM_GetElementValue       0040a290 f   ctn_lib:dcm.obj
 0001:00009780       _DCM_GetString             0040a780 f   ctn_lib:dcm.obj
 0001:00009a60       _DCM_GetElementValueOffset 0040aa60 f   ctn_lib:dcm.obj
 0001:00009dc0       _DCM_GetElementSize        0040adc0 f   ctn_lib:dcm.obj
 0001:0000a010       _DCM_ScanParseObject       0040b010 f   ctn_lib:dcm.obj
 0001:0000a2d0       _DCM_ImportStream          0040b2d0 f   ctn_lib:dcm.obj
 0001:0000a360       _DCM_ExportStream          0040b360 f   ctn_lib:dcm.obj
 0001:0000a3e0       _DCM_GetObjectSize         0040b3e0 f   ctn_lib:dcm.obj
 0001:0000a450       _DCM_DumpElements          0040b450 f   ctn_lib:dcm.obj
 0001:0000ab50       _DCM_FormatElements        0040bb50 f   ctn_lib:dcm.obj
 0001:0000b270       _DCM_Debug                 0040c270 f   ctn_lib:dcm.obj
 0001:0000b2a0       _DCM_WriteFile             0040c2a0 f   ctn_lib:dcm.obj
 0001:0000b3b0       _DCM_ModifyElements        0040c3b0 f   ctn_lib:dcm.obj
 0001:0000b590       _DCM_ParseObject           0040c590 f   ctn_lib:dcm.obj
 0001:0000b790       _DCM_RemoveGroup           0040c790 f   ctn_lib:dcm.obj
 0001:0000b960       _DCM_StripOddGroups        0040c960 f   ctn_lib:dcm.obj
 0001:0000bb10       _DCM_GetSequenceList       0040cb10 f   ctn_lib:dcm.obj
 0001:0000bd50       _DCM_GetSequenceElement    0040cd50 f   ctn_lib:dcm.obj
 0001:0000be70       _DCM_GetSequenceObject     0040ce70 f   ctn_lib:dcm.obj
 0001:0000bef0       _DCM_GetElementValueList   0040cef0 f   ctn_lib:dcm.obj
 0001:0000c2e0       _DCM_AddElementList        0040d2e0 f   ctn_lib:dcm.obj
 0001:0000c380       _DCM_GetElement            0040d380 f   ctn_lib:dcm.obj
 0001:0000c450       _DCM_ComputeExportLength   0040d450 f   ctn_lib:dcm.obj
 0001:0000c500       _DCM_CompareAttributes     0040d500 f   ctn_lib:dcm.obj
 0001:0000c740       _DCM_GroupPresent          0040d740 f   ctn_lib:dcm.obj
 0001:00013090       _DCM_GetCompressedValue    00414090 f   ctn_lib:dcm.obj
 0001:00013640       _DCM_PrintSequenceList     00414640 f   ctn_lib:dcm.obj
 0001:00013760       _DCM_GetSequenceByOffset   00414760 f   ctn_lib:dcm.obj
 0001:00013880       _DCM_CopyObject            00414880 f   ctn_lib:dcm.obj
 0001:00013c90       _DCM_MergeObject           00414c90 f   ctn_lib:dcm.obj
 0001:00013e50       _DCM_GetFirstElement       00414e50 f   ctn_lib:dcm.obj
 0001:00013f40       _DCM_GetNextElement        00414f40 f   ctn_lib:dcm.obj
 0001:00014080       _DCM_AddFragment           00415080 f   ctn_lib:dcm.obj
 0001:000145d0       _UID_NewUID                004155d0 f   ctn_lib:uid.obj
 0001:000148e0       _UID_NewNumber             004158e0 f   ctn_lib:uid.obj
 0001:000149e0       _UID_Lookup                004159e0 f   ctn_lib:uid.obj
 0001:00014ad0       _UID_ScanDictionary        00415ad0 f   ctn_lib:uid.obj
 0001:00014f30       _UID_Translate             00415f30 f   ctn_lib:uid.obj
 0001:00014fe0       _UID_IsStorageClass        00415fe0 f   ctn_lib:uid.obj
 0001:000151d0       _COND_PushCondition        004161d0 f   ctn_lib:condition.obj
 0001:00015350       _COND_ExtractConditions    00416350 f   ctn_lib:condition.obj
 0001:00015430       _COND_TopCondition         00416430 f   ctn_lib:condition.obj
 0001:00015530       _COND_PopCondition         00416530 f   ctn_lib:condition.obj
 0001:00015610       _COND_EstablishCallback    00416610 f   ctn_lib:condition.obj
 0001:000156a0       _COND_DumpConditions       004166a0 f   ctn_lib:condition.obj
 0001:000157b0       _COND_CopyText             004167b0 f   ctn_lib:condition.obj
 0001:000158e0       _COND_WriteConditions      004168e0 f   ctn_lib:condition.obj
 0001:00015970       _LST_Create                00416970 f   ctn_lib:lst.obj
 0001:000159e0       _LST_Destroy               004169e0 f   ctn_lib:lst.obj
 0001:00015a40       _LST_Enqueue               00416a40 f   ctn_lib:lst.obj
 0001:00015ac0       _LST_Push                  00416ac0 f   ctn_lib:lst.obj
 0001:00015b40       _LST_Dequeue               00416b40 f   ctn_lib:lst.obj
 0001:00015be0       _LST_Pop                   00416be0 f   ctn_lib:lst.obj
 0001:00015c80       _LST_Count                 00416c80 f   ctn_lib:lst.obj
 0001:00015cb0       _LST_Head                  00416cb0 f   ctn_lib:lst.obj
 0001:00015ce0       _LST_Current               00416ce0 f   ctn_lib:lst.obj
 0001:00015d10       _LST_Tail                  00416d10 f   ctn_lib:lst.obj
 0001:00015d40       _LST_Insert                00416d40 f   ctn_lib:lst.obj
 0001:00015f10       _LST_Remove                00416f10 f   ctn_lib:lst.obj
 0001:00016100       _LST_Next                  00417100 f   ctn_lib:lst.obj
 0001:00016170       _LST_Previous              00417170 f   ctn_lib:lst.obj
 0001:000161f0       _LST_Position              004171f0 f   ctn_lib:lst.obj
 0001:00016280       _LST_Sort                  00417280 f   ctn_lib:lst.obj
 0001:000163c0       _LST_Index                 004173c0 f   ctn_lib:lst.obj
 0001:00016450       _MSG_DumpMessage           00417450 f   ctn_lib:dump.obj
 0001:000188f0       _SRV_SetFlagBoolean        004198f0 f   ctn_lib:storage.obj
 0001:00018940       _SRV_CStoreRequest         00419940 f   ctn_lib:storage.obj
 0001:00018dd0       _SRV_CStoreResponse        00419dd0 f   ctn_lib:storage.obj
 0001:000195d0       _DUL_InitializeFSM         0041a5d0 f   ctn_lib:dulfsm.obj
 0001:00019760       _PRV_StateMachine          0041a760 f   ctn_lib:dulfsm.obj
 0001:000198e0       _fsmDebug                  0041a8e0 f   ctn_lib:dulfsm.obj
 0001:00019910       _fsmBlog                   0041a910 f   ctn_lib:dulfsm.obj
 0001:0001be70       _PRV_NextPDUType           0041ce70 f   ctn_lib:dulfsm.obj
 0001:0001c6f0       _translatePresentationContextList 0041d6f0 f   ctn_lib:dulfsm.obj
 0001:0001c9c0       _findPresentationCtx       0041d9c0 f   ctn_lib:dulfsm.obj
 0001:0001ca50       _findSCUSCPRole            0041da50 f   ctn_lib:dulfsm.obj
 0001:0001cae0       _destroyPresentationContextList 0041dae0 f   ctn_lib:dulfsm.obj
 0001:0001cba0       _destroyUserInformationLists 0041dba0 f   ctn_lib:dulfsm.obj
 0001:0001cc20       _DULPRV_translateAssocReq  0041dc20 f   ctn_lib:dulfsm.obj
 0001:0001cdc0       _DUL_Message               0041ddc0 f   ctn_lib:dulcond.obj
 0001:0001ce20       _parseAssociate            0041de20 f   ctn_lib:dulparse.obj
 0001:0001d2e0       _parseDebug                0041e2e0 f   ctn_lib:dulparse.obj
 0001:0001dcb0       _constructAssociatePDU     0041ecb0 f   ctn_lib:dulconstruct.obj
 0001:0001e1d0       _constructAssociateRejectPDU 0041f1d0 f   ctn_lib:dulconstruct.obj
 0001:0001e230       _constructReleaseRQPDU     0041f230 f   ctn_lib:dulconstruct.obj
 0001:0001e290       _constructReleaseRPPDU     0041f290 f   ctn_lib:dulconstruct.obj
 0001:0001e2f0       _constructAbortPDU         0041f2f0 f   ctn_lib:dulconstruct.obj
 0001:0001e350       _constructDataPDU          0041f350 f   ctn_lib:dulconstruct.obj
 0001:0001e3e0       _streamAssociatePDU        0041f3e0 f   ctn_lib:dulconstruct.obj
 0001:0001e620       _streamRejectReleaseAbortPDU 0041f620 f   ctn_lib:dulconstruct.obj
 0001:0001e740       _streamDataPDUHead         0041f740 f   ctn_lib:dulconstruct.obj
 0001:0001e880       _constructDebug            0041f880 f   ctn_lib:dulconstruct.obj
 0001:0001faf0       _DUL_MakePresentationCtx   00420af0 f   ctn_lib:dulpresent.obj
 0001:0001fce0       _DUL_AddSinglePresentationCtx 00420ce0 f   ctn_lib:dulpresent.obj
 0001:0001ff00       _DUL_AddMultiplePresentationCtx 00420f00 f   ctn_lib:dulpresent.obj
 0001:0001ffa0       _SRV_Message               00420fa0 f   ctn_lib:srvcond.obj
 0001:00020000       _PRVSRV_verifyCommandValidity 00421000 f   ctn_lib:cmd_valid.obj
 0001:000201a0       _DCM_Message               004211a0 f   ctn_lib:dcmcond.obj
 0001:00020200       _DCM_DumpVector            00421200 f   ctn_lib:dcmcond.obj
 0001:00020280       _DCM_LookupElement         00421280 f   ctn_lib:dcmdict.obj
 0001:00020460       _DCM_GroupDictionary       00421460 f   ctn_lib:dcmdict.obj
 0001:00020500       _DCM_ElementDictionary     00421500 f   ctn_lib:dcmdict.obj
 0001:00020630       _DCM_ListToString          00421630 f   ctn_lib:dcmsupport.obj
 0001:000207f0       _DCM_IsString              004217f0 f   ctn_lib:dcmsupport.obj
 0001:000208c0       _DCM_IsSequence            004218c0 f   ctn_lib:dcmsupport.obj
 0001:00020940       _UID_Message               00421940 f   ctn_lib:uidcond.obj
 0001:000209a0       _MSG_Free                  004219a0 f   ctn_lib:messages.obj
 0001:00020a90       _MSG_BuildCommand          00421a90 f   ctn_lib:messages.obj
 0001:00020b30       _MSG_ParseCommand          00421b30 f   ctn_lib:messages.obj
 0001:00020c80       _MSG_StatusLookup          00421c80 f   ctn_lib:messages.obj
 0001:00021730       _SRV_ReceiveCommand        00422730 f   ctn_lib:srv2.obj
 0001:00021e80       _SRV_ReceiveDataSet        00422e80 f   ctn_lib:srv2.obj
 0001:00022300       _SRV_TestForCancel         00423300 f   ctn_lib:srv2.obj
 0001:00022a80       _SRVPRV_ReadNextPDV        00423a80 f   ctn_lib:srv2.obj
 0001:00022fc0       _SRV_SimulateError         00423fc0 f   ctn_lib:send.obj
 0001:00022ff0       _exportOptionsFromXferSyntax 00423ff0 f   ctn_lib:send.obj
 0001:00023070       _SRV_SendCommand           00424070 f   ctn_lib:send.obj
 0001:000231a0       _SRV_SendDataSet           004241a0 f   ctn_lib:send.obj
 0001:000234c0       _SRVPRV_PresentationContext 004244c0 f   ctn_lib:private.obj
 0001:000235d0       _DCM_GetFileMeta           004245d0 f   ctn_lib:dcm1.obj
 0001:00023760       _DCM_SetFileMeta           00424760 f   ctn_lib:dcm1.obj
 0001:000237d0       _DCM_FreeFileMeta          004247d0 f   ctn_lib:dcm1.obj
 0001:00023850       _DCM_DefaultFileMeta       00424850 f   ctn_lib:dcm1.obj
 0001:00023a00       _MSG_Message               00424a00 f   ctn_lib:msgcond.obj
 0001:00023a5e       _gethostname@8             00424a5e f   wsock32:WSOCK32.dll
 0001:00023a64       _setsockopt@20             00424a64 f   wsock32:WSOCK32.dll
 0001:00023a6a       _WSAStartup@8              00424a6a f   wsock32:WSOCK32.dll
 0001:00023a70       _WSACleanup@0              00424a70 f   wsock32:WSOCK32.dll
 0001:00023a76       _closesocket@4             00424a76 f   wsock32:WSOCK32.dll
 0001:00023a7c       _connect@12                00424a7c f   wsock32:WSOCK32.dll
 0001:00023a82       _htons@4                   00424a82 f   wsock32:WSOCK32.dll
 0001:00023a88       _gethostbyname@4           00424a88 f   wsock32:WSOCK32.dll
 0001:00023a8e       _socket@12                 00424a8e f   wsock32:WSOCK32.dll
 0001:00023a94       _send@16                   00424a94 f   wsock32:WSOCK32.dll
 0001:00023a9a       _recv@16                   00424a9a f   wsock32:WSOCK32.dll
 0001:00023aa0       ___WSAFDIsSet@8            00424aa0 f   wsock32:WSOCK32.dll
 0001:00023aa6       _select@20                 00424aa6 f   wsock32:WSOCK32.dll
 0001:00023aac       _gethostbyaddr@12          00424aac f   wsock32:WSOCK32.dll
 0001:00023ab2       _accept@12                 00424ab2 f   wsock32:WSOCK32.dll
 0001:00023ab8       _listen@8                  00424ab8 f   wsock32:WSOCK32.dll
 0001:00023abe       _getsockname@12            00424abe f   wsock32:WSOCK32.dll
 0001:00023ac4       _bind@12                   00424ac4 f   wsock32:WSOCK32.dll
 0001:00023aca       _CreateMutexA@12           00424aca f   kernel32:KERNEL32.dll
 0001:00023ad0       _CloseHandle@4             00424ad0 f   kernel32:KERNEL32.dll
 0001:00023ad6       _WaitForSingleObject@8     00424ad6 f   kernel32:KERNEL32.dll
 0001:00023adc       _OpenMutexA@12             00424adc f   kernel32:KERNEL32.dll
 0001:00023ae2       _ReleaseMutex@4            00424ae2 f   kernel32:KERNEL32.dll
 0001:00023af0       _sprintf                   00424af0 f   LIBCMTD:sprintf.obj
 0001:00023bf0       _strcpy                    00424bf0 f   LIBCMTD:strcat.obj
 0001:00023c00       _strcat                    00424c00 f   LIBCMTD:strcat.obj
 0001:00023ce0       _strcmp                    00424ce0 f   LIBCMTD:strcmp.obj
 0001:00023d70       _sscanf                    00424d70 f   LIBCMTD:sscanf.obj
 0001:00023e30       _malloc                    00424e30 f   LIBCMTD:dbgheap.obj
 0001:00023e60       __malloc_dbg               00424e60 f   LIBCMTD:dbgheap.obj
 0001:00023e90       __nh_malloc                00424e90 f   LIBCMTD:dbgheap.obj
 0001:00023eb0       __nh_malloc_dbg            00424eb0 f   LIBCMTD:dbgheap.obj
 0001:00023f50       __heap_alloc               00424f50 f   LIBCMTD:dbgheap.obj
 0001:00023f70       __heap_alloc_dbg           00424f70 f   LIBCMTD:dbgheap.obj
 0001:00024290       _calloc                    00425290 f   LIBCMTD:dbgheap.obj
 0001:000242c0       __calloc_dbg               004252c0 f   LIBCMTD:dbgheap.obj
 0001:00024320       _realloc                   00425320 f   LIBCMTD:dbgheap.obj
 0001:00024350       __realloc_dbg              00425350 f   LIBCMTD:dbgheap.obj
 0001:00024900       __expand                   00425900 f   LIBCMTD:dbgheap.obj
 0001:00024930       __expand_dbg               00425930 f   LIBCMTD:dbgheap.obj
 0001:000249c0       _free                      004259c0 f   LIBCMTD:dbgheap.obj
 0001:000249e0       __free_lk                  004259e0 f   LIBCMTD:dbgheap.obj
 0001:00024a00       __free_dbg                 00425a00 f   LIBCMTD:dbgheap.obj
 0001:00024a70       __free_dbg_lk              00425a70 f   LIBCMTD:dbgheap.obj
 0001:00024e60       __msize                    00425e60 f   LIBCMTD:dbgheap.obj
 0001:00024e80       __msize_dbg                00425e80 f   LIBCMTD:dbgheap.obj
 0001:00025010       __CrtSetBreakAlloc         00426010 f   LIBCMTD:dbgheap.obj
 0001:00025030       __CrtSetDbgBlockType       00426030 f   LIBCMTD:dbgheap.obj
 0001:00025110       __CrtSetAllocHook          00426110 f   LIBCMTD:dbgheap.obj
 0001:000251c0       __CrtCheckMemory           004261c0 f   LIBCMTD:dbgheap.obj
 0001:00025570       __CrtSetDbgFlag            00426570 f   LIBCMTD:dbgheap.obj
 0001:000255a0       __CrtDoForAllClientObjects 004265a0 f   LIBCMTD:dbgheap.obj
 0001:00025650       __CrtIsValidPointer        00426650 f   LIBCMTD:dbgheap.obj
 0001:000256a0       __CrtIsValidHeapPointer    004266a0 f   LIBCMTD:dbgheap.obj
 0001:000257d0       __CrtIsMemoryBlock         004267d0 f   LIBCMTD:dbgheap.obj
 0001:00025900       __CrtSetDumpClient         00426900 f   LIBCMTD:dbgheap.obj
 0001:00025920       __CrtMemCheckpoint         00426920 f   LIBCMTD:dbgheap.obj
 0001:00025ad0       __CrtMemDifference         00426ad0 f   LIBCMTD:dbgheap.obj
 0001:00025c00       __CrtMemDumpAllObjectsSince 00426c00 f   LIBCMTD:dbgheap.obj
 0001:00026020       __CrtDumpMemoryLeaks       00427020 f   LIBCMTD:dbgheap.obj
 0001:000260a0       __CrtMemDumpStatistics     004270a0 f   LIBCMTD:dbgheap.obj
 0001:00026170       _strlen                    00427170 f   LIBCMTD:strlen.obj
 0001:000261f0       _printf                    004271f0 f   LIBCMTD:printf.obj
 0001:00026290       __fpmath                   00427290 f   LIBCMTD:fpinit.obj
 0001:000262c0       __fpclear                  004272c0 f   LIBCMTD:fpinit.obj
 0001:000262d0       __cfltcvt_init             004272d0 f   LIBCMTD:fpinit.obj
 0001:00026320       ___setfflag                00427320 f   LIBCMTD:fpinit.obj
 0001:00026340       __cinit                    00427340 f   LIBCMTD:crt0dat.obj
 0001:00026380       _exit                      00427380 f   LIBCMTD:crt0dat.obj
 0001:000263a0       __exit                     004273a0 f   LIBCMTD:crt0dat.obj
 0001:000263c0       __cexit                    004273c0 f   LIBCMTD:crt0dat.obj
 0001:000263e0       __c_exit                   004273e0 f   LIBCMTD:crt0dat.obj
 0001:000264f0       __lockexit                 004274f0 f   LIBCMTD:crt0dat.obj
 0001:00026500       __unlockexit               00427500 f   LIBCMTD:crt0dat.obj
 0001:00026540       _fprintf                   00427540 f   LIBCMTD:fprintf.obj
 0001:00026610       ___initstdio               00427610 f   LIBCMTD:_file.obj
 0001:00026740       ___endstdio                00427740 f   LIBCMTD:_file.obj
 0001:00026760       __lock_file                00427760 f   LIBCMTD:_file.obj
 0001:000267a0       __lock_file2               004277a0 f   LIBCMTD:_file.obj
 0001:000267d0       __unlock_file              004277d0 f   LIBCMTD:_file.obj
 0001:00026810       __unlock_file2             00427810 f   LIBCMTD:_file.obj
 0001:00026840       _mainCRTStartup            00427840 f   LIBCMTD:crt0.obj
 0001:00026990       __amsg_exit                00427990 f   LIBCMTD:crt0.obj
 0001:000269f0       __chkesp                   004279f0 f   LIBCMTD:chkesp.obj
 0001:00026a30       _atol                      00427a30 f   LIBCMTD:atox.obj
 0001:00026b30       _atoi                      00427b30 f   LIBCMTD:atox.obj
 0001:00026b50       __atoi64                   00427b50 f   LIBCMTD:atox.obj
 0001:00026c80       _strncpy                   00427c80 f   LIBCMTD:strncpy.obj
 0001:00026d80       _atof                      00427d80 f   LIBCMTD:atof.obj
 0001:00026e00       __isctype                  00427e00 f   LIBCMTD:isctype.obj
 0001:00026eb8       __ftol                     00427eb8 f   LIBCMTD:ftol.obj
 0001:00026ef0       _strchr                    00427ef0 f   LIBCMTD:strchr.obj
 0001:00026ef6       ___from_strstr_to_strchr   00427ef6 f   LIBCMTD:strchr.obj
 0001:00026fb0       _localtime                 00427fb0 f   LIBCMTD:localtim.obj
 0001:00027210       _time                      00428210 f   LIBCMTD:time.obj
 0001:000273a0       __ftime                    004283a0 f   LIBCMTD:ftime.obj
 0001:000274b0       _perror                    004284b0 f   LIBCMTD:perror.obj
 0001:00027590       __mkdir                    00428590 f   LIBCMTD:mkdir.obj
 0001:000275e0       _memset                    004285e0 f   LIBCMTD:memset.obj
 0001:00027640       __dosmaperr                00428640 f   LIBCMTD:dosmap.obj
 0001:000276e0       __errno                    004286e0 f   LIBCMTD:dosmap.obj
 0001:000276f0       ___doserrno                004286f0 f   LIBCMTD:dosmap.obj
 0001:00027700       ___dtoxmode                00428700 f   LIBCMTD:stat.obj
 0001:00027850       __stat                     00428850 f   LIBCMTD:stat.obj
 0001:00027850       _stat                      00428850 f   LIBCMTD:stat.obj
 0001:00027dd0       __findfirst                00428dd0 f   LIBCMTD:findfile.obj
 0001:00027f10       __findnext                 00428f10 f   LIBCMTD:findfile.obj
 0001:00028040       __findclose                00429040 f   LIBCMTD:findfile.obj
 0001:00028070       ___timet_from_ft           00429070 f   LIBCMTD:findfile.obj
 0001:00028100       _fclose                    00429100 f   LIBCMTD:fclose.obj
 0001:00028190       __fclose_lk                00429190 f   LIBCMTD:fclose.obj
 0001:00028250       _strtok                    00429250 f   LIBCMTD:strtok.obj
 0001:000283a0       _fgets                     004293a0 f   LIBCMTD:fgets.obj
 0001:000284e0       __fsopen                   004294e0 f   LIBCMTD:fopen.obj
 0001:000285e0       _fopen                     004295e0 f   LIBCMTD:fopen.obj
 0001:00028600       _getenv                    00429600 f   LIBCMTD:getenv.obj
 0001:00028630       __getenv_lk                00429630 f   LIBCMTD:getenv.obj
 0001:00028700       _memcpy                    00429700 f   LIBCMTD:memcpy.obj
 0001:00028a40       _strerror                  00429a40 f   LIBCMTD:strerror.obj
 0001:00028ad0       _open                      00429ad0 f   LIBCMTD:open.obj
 0001:00028ad0       __open                     00429ad0 f   LIBCMTD:open.obj
 0001:00028b10       __sopen                    00429b10 f   LIBCMTD:open.obj
 0001:00029070       _strncmp                   0042a070 f   LIBCMTD:strncmp.obj
 0001:000290b0       __read                     0042a0b0 f   LIBCMTD:read.obj
 0001:000290b0       _read                      0042a0b0 f   LIBCMTD:read.obj
 0001:00029140       __read_lk                  0042a140 f   LIBCMTD:read.obj
 0001:00029590       __tolower                  0042a590 f   LIBCMTD:tolower.obj
 0001:000295a0       _tolower                   0042a5a0 f   LIBCMTD:tolower.obj
 0001:00029640       __tolower_lk               0042a640 f   LIBCMTD:tolower.obj
 0001:00029770       _vsprintf                  0042a770 f   LIBCMTD:vsprintf.obj
 0001:00029870       _fflush                    0042a870 f   LIBCMTD:fflush.obj
 0001:000298c0       __fflush_lk                0042a8c0 f   LIBCMTD:fflush.obj
 0001:00029910       __flush                    0042a910 f   LIBCMTD:fflush.obj
 0001:000299d0       __flushall                 0042a9d0 f   LIBCMTD:fflush.obj
 0001:00029b20       __alloca_probe             0042ab20 f   LIBCMTD:chkstk.obj
 0001:00029b20       __chkstk                   0042ab20 f   LIBCMTD:chkstk.obj
 0001:00029b50       __flsbuf                   0042ab50 f   LIBCMTD:_flsbuf.obj
 0001:00029dd0       __output                   0042add0 f   LIBCMTD:output.obj
 0001:0002ad00       __CrtDbgBreak              0042bd00 f   LIBCMTD:dbgrpt.obj
 0001:0002ad10       __CrtSetReportMode         0042bd10 f   LIBCMTD:dbgrpt.obj
 0001:0002ad70       __CrtSetReportFile         0042bd70 f   LIBCMTD:dbgrpt.obj
 0001:0002adf0       __CrtSetReportHook         0042bdf0 f   LIBCMTD:dbgrpt.obj
 0001:0002ae10       __CrtDbgReport             0042be10 f   LIBCMTD:dbgrpt.obj
 0001:0002b4b0       __input                    0042c4b0 f   LIBCMTD:input.obj
 0001:0002c9b0       ?_set_new_handler@@YAP6AHI@ZP6AHI@Z@Z 0042d9b0 f   LIBCMTD:handler.obj
 0001:0002c9e0       ?_query_new_handler@@YAP6AHI@ZXZ 0042d9e0 f   LIBCMTD:handler.obj
 0001:0002c9f0       __callnewh                 0042d9f0 f   LIBCMTD:handler.obj
 0001:0002ca20       __mtinitlocks              0042da20 f   LIBCMTD:mlock.obj
 0001:0002ca60       __mtdeletelocks            0042da60 f   LIBCMTD:mlock.obj
 0001:0002cb00       __lock                     0042db00 f   LIBCMTD:mlock.obj
 0001:0002cba0       __unlock                   0042dba0 f   LIBCMTD:mlock.obj
 0001:0002cbc0       __lockerr_exit             0042dbc0 f   LIBCMTD:mlock.obj
 0001:0002cbdc       __global_unwind2           0042dbdc f   LIBCMTD:exsup.obj
 0001:0002cc1e       __local_unwind2            0042dc1e f   LIBCMTD:exsup.obj
 0001:0002cc76       __NLG_Return2              0042dc76 f   LIBCMTD:exsup.obj
 0001:0002cc86       __abnormal_termination     0042dc86 f   LIBCMTD:exsup.obj
 0001:0002cca9       __NLG_Notify1              0042dca9 f   LIBCMTD:exsup.obj
 0001:0002ccb2       __NLG_Notify               0042dcb2 f   LIBCMTD:exsup.obj
 0001:0002ccc5       __NLG_Dispatch             0042dcc5 f   LIBCMTD:exsup.obj
 0001:0002ccd4       __except_handler3          0042dcd4 f   LIBCMTD:exsup3.obj
 0001:0002cd91       __seh_longjmp_unwind@4     0042dd91 f   LIBCMTD:exsup3.obj
 0001:0002cdb0       __malloc_base              0042ddb0 f   LIBCMTD:malloc.obj
 0001:0002cdd0       __nh_malloc_base           0042ddd0 f   LIBCMTD:malloc.obj
 0001:0002ce30       __heap_alloc_base          0042de30 f   LIBCMTD:malloc.obj
 0001:0002cf80       __CrtDefaultAllocHook      0042df80 f   LIBCMTD:dbghook.obj
 0001:0002cf90       __expand_base              0042df90 f   LIBCMTD:expand.obj
 0001:0002d1a0       __realloc_base             0042e1a0 f   LIBCMTD:realloc.obj
 0001:0002d640       __free_base                0042e640 f   LIBCMTD:free.obj
 0001:0002d790       __heapchk                  0042e790 f   LIBCMTD:heapchk.obj
 0001:0002d8a0       __heapset                  0042e8a0 f   LIBCMTD:heapchk.obj
 0001:0002d8b0       __get_sbh_threshold        0042e8b0 f   LIBCMTD:sbheap.obj
 0001:0002d8e0       __set_sbh_threshold        0042e8e0 f   LIBCMTD:sbheap.obj
 0001:0002d9f0       ___sbh_heap_init           0042e9f0 f   LIBCMTD:sbheap.obj
 0001:0002da60       ___sbh_find_block          0042ea60 f   LIBCMTD:sbheap.obj
 0001:0002dac0       ___sbh_verify_block        0042eac0 f   LIBCMTD:sbheap.obj
 0001:0002db20       ___sbh_free_block          0042eb20 f   LIBCMTD:sbheap.obj
 0001:0002e100       ___sbh_alloc_block         0042f100 f   LIBCMTD:sbheap.obj
 0001:0002e640       ___sbh_alloc_new_region    0042f640 f   LIBCMTD:sbheap.obj
 0001:0002e750       ___sbh_alloc_new_group     0042f750 f   LIBCMTD:sbheap.obj
 0001:0002e940       ___sbh_resize_block        0042f940 f   LIBCMTD:sbheap.obj
 0001:0002ef30       ___sbh_heapmin             0042ff30 f   LIBCMTD:sbheap.obj
 0001:0002f060       ___sbh_heap_check          00430060 f   LIBCMTD:sbheap.obj
 0001:0002f680       __get_old_sbh_threshold    00430680 f   LIBCMTD:sbheap.obj
 0001:0002f690       __set_old_sbh_threshold    00430690 f   LIBCMTD:sbheap.obj
 0001:0002f6c0       ___old_sbh_new_region      004306c0 f   LIBCMTD:sbheap.obj
 0001:0002f8a0       ___old_sbh_release_region  004308a0 f   LIBCMTD:sbheap.obj
 0001:0002f920       ___old_sbh_decommit_pages  00430920 f   LIBCMTD:sbheap.obj
 0001:0002fa80       ___old_sbh_find_block      00430a80 f   LIBCMTD:sbheap.obj
 0001:0002fb10       ___old_sbh_free_block      00430b10 f   LIBCMTD:sbheap.obj
 0001:0002fb80       ___old_sbh_alloc_block     00430b80 f   LIBCMTD:sbheap.obj
 0001:0002ff40       ___old_sbh_alloc_block_from_page 00430f40 f   LIBCMTD:sbheap.obj
 0001:000301f0       ___old_sbh_resize_block    004311f0 f   LIBCMTD:sbheap.obj
 0001:00030360       ___old_sbh_heap_check      00431360 f   LIBCMTD:sbheap.obj
 0001:000305a0       __GetLinkerVersion         004315a0 f   LIBCMTD:heapinit.obj
 0001:00030600       ___heap_select             00431600 f   LIBCMTD:heapinit.obj
 0001:00030830       __heap_init                00431830 f   LIBCMTD:heapinit.obj
 0001:000308c0       __heap_term                004318c0 f   LIBCMTD:heapinit.obj
 0001:000309b0       __stbuf                    004319b0 f   LIBCMTD:_sftbuf.obj
 0001:00030b10       __ftbuf                    00431b10 f   LIBCMTD:_sftbuf.obj
 0001:00030bb0       __setdefaultprecision      00431bb0 f   LIBCMTD:fp8.obj
 0001:00030bd0       __ms_p5_test_fdiv          00431bd0 f   LIBCMTD:testfdiv.obj
 0001:00030c30       __ms_p5_mp_test_fdiv       00431c30 f   LIBCMTD:testfdiv.obj
 0001:00030c80       __forcdecpt                00431c80 f   LIBCMTD:cvt.obj
 0001:00030d30       __cropzeros                00431d30 f   LIBCMTD:cvt.obj
 0001:00030e10       __positive                 00431e10 f   LIBCMTD:cvt.obj
 0001:00030e40       __fassign                  00431e40 f   LIBCMTD:cvt.obj
 0001:00030e90       __cftoe                    00431e90 f   LIBCMTD:cvt.obj
 0001:00031080       __cftof                    00432080 f   LIBCMTD:cvt.obj
 0001:00031230       __cftog                    00432230 f   LIBCMTD:cvt.obj
 0001:00031320       __cfltcvt                  00432320 f   LIBCMTD:cvt.obj
 0001:000313b0       __ioinit                   004323b0 f   LIBCMTD:ioinit.obj
 0001:000316e0       __ioterm                   004326e0 f   LIBCMTD:ioinit.obj
 0001:00031780       __fcloseall                00432780 f   LIBCMTD:closeall.obj
 0001:00031860       __XcptFilter               00432860 f   LIBCMTD:winxfltr.obj
 0001:00031a80       __setenvp                  00432a80 f   LIBCMTD:stdenvp.obj
 0001:00031bd0       __setargv                  00432bd0 f   LIBCMTD:stdargv.obj
 0001:000320e0       ___crtGetEnvironmentStringsA 004330e0 f   LIBCMTD:a_env.obj
 0001:00032300       __mtinit                   00433300 f   LIBCMTD:tidtable.obj
 0001:00032390       __mtterm                   00433390 f   LIBCMTD:tidtable.obj
 0001:000323c0       __initptd                  004333c0 f   LIBCMTD:tidtable.obj
 0001:000323e0       __getptd                   004333e0 f   LIBCMTD:tidtable.obj
 0001:00032480       __freeptd                  00433480 f   LIBCMTD:tidtable.obj
 0001:00032590       ___threadid                00433590 f   LIBCMTD:tidtable.obj
 0001:000325a0       ___threadhandle            004335a0 f   LIBCMTD:tidtable.obj
 0001:000325b0       __FF_MSGBANNER             004335b0 f   LIBCMTD:crt0msg.obj
 0001:00032600       __NMSG_WRITE               00433600 f   LIBCMTD:crt0msg.obj
 0001:000327c0       __GET_RTERRMSG             004337c0 f   LIBCMTD:crt0msg.obj
 0001:00032810       __allmul                   00433810 f   LIBCMTD:llmul.obj
 0001:00032850       __fltin2                   00433850 f   LIBCMTD:cfin.obj
 0001:00032910       ___crtGetStringTypeA       00433910 f   LIBCMTD:a_str.obj
 0001:00032ad0       ___tzset                   00433ad0 f   LIBCMTD:tzset.obj
 0001:00032b10       __tzset                    00433b10 f   LIBCMTD:tzset.obj
 0001:00032ee0       __isindst                  00433ee0 f   LIBCMTD:tzset.obj
 0001:00033410       _gmtime                    00434410 f   LIBCMTD:gmtime.obj
 0001:00033610       ___loctotime_t             00434610 f   LIBCMTD:dtoxtime.obj
 0001:00033700       __aullrem                  00434700 f   LIBCMTD:ullrem.obj
 0001:00033780       __aulldiv                  00434780 f   LIBCMTD:ulldiv.obj
 0001:000337f0       __alloc_osfhnd             004347f0 f   LIBCMTD:osfinfo.obj
 0001:000339e0       __set_osfhnd               004349e0 f   LIBCMTD:osfinfo.obj
 0001:00033aa0       __free_osfhnd              00434aa0 f   LIBCMTD:osfinfo.obj
 0001:00033b80       __get_osfhandle            00434b80 f   LIBCMTD:osfinfo.obj
 0001:00033bf0       __open_osfhandle           00434bf0 f   LIBCMTD:osfinfo.obj
 0001:00033d00       __lock_fhandle             00434d00 f   LIBCMTD:osfinfo.obj
 0001:00033d90       __unlock_fhandle           00434d90 f   LIBCMTD:osfinfo.obj
 0001:00033dc0       _write                     00434dc0 f   LIBCMTD:write.obj
 0001:00033dc0       __write                    00434dc0 f   LIBCMTD:write.obj
 0001:00033e50       __write_lk                 00434e50 f   LIBCMTD:write.obj
 0001:000340d0       __mbsicmp                  004350d0 f   LIBCMTD:mbsicmp.obj
 0001:00034370       __mbsrchr                  00435370 f   LIBCMTD:mbsrchr.obj
 0001:00034440       __fullpath                 00435440 f   LIBCMTD:fullpath.obj
 0001:00034520       __getdrive                 00435520 f   LIBCMTD:drive.obj
 0001:00034580       __chdrive                  00435580 f   LIBCMTD:drive.obj
 0001:00034610       __mbctolower               00435610 f   LIBCMTD:mbtolwr.obj
 0001:000346f0       __mbspbrk                  004356f0 f   LIBCMTD:mbspbrk.obj
 0001:00034830       __close                    00435830 f   LIBCMTD:close.obj
 0001:00034830       _close                     00435830 f   LIBCMTD:close.obj
 0001:000348b0       __close_lk                 004358b0 f   LIBCMTD:close.obj
 0001:00034960       __freebuf                  00435960 f   LIBCMTD:_freebuf.obj
 0001:00034a00       __filbuf                   00435a00 f   LIBCMTD:_filbuf.obj
 0001:00034bf0       __openfile                 00435bf0 f   LIBCMTD:_open.obj
 0001:00034f80       __getstream                00435f80 f   LIBCMTD:stream.obj
 0001:00035100       __mbsnbicoll               00436100 f   LIBCMTD:mbsnbico.obj
 0001:00035150       ___wtomb_environ           00436150 f   LIBCMTD:wtombenv.obj
 0001:00035200       __chsize                   00436200 f   LIBCMTD:chsize.obj
 0001:00035280       __chsize_lk                00436280 f   LIBCMTD:chsize.obj
 0001:000354b0       _lseek                     004364b0 f   LIBCMTD:lseek.obj
 0001:000354b0       __lseek                    004364b0 f   LIBCMTD:lseek.obj
 0001:00035540       __lseek_lk                 00436540 f   LIBCMTD:lseek.obj
 0001:00035600       _setlocale                 00436600 f   LIBCMTD:setlocal.obj
 0001:00035c90       __expandlocale             00436c90 f   LIBCMTD:setlocal.obj
 0001:00035e20       ___init_dummy              00436e20 f   LIBCMTD:setlocal.obj
 0001:00035e30       __strcats                  00436e30 f   LIBCMTD:setlocal.obj
 0001:00035e80       ___lc_strtolc              00436e80 f   LIBCMTD:setlocal.obj
 0001:00035fe0       ___lc_lctostr              00436fe0 f   LIBCMTD:setlocal.obj
 0001:00036050       ___crtLCMapStringA         00437050 f   LIBCMTD:a_map.obj
 0001:000363b0       __commit                   004373b0 f   LIBCMTD:commit.obj
 0001:00036490       __getbuf                   00437490 f   LIBCMTD:_getbuf.obj
 0001:00036560       __isatty                   00437560 f   LIBCMTD:isatty.obj
 0001:000365a0       _wctomb                    004375a0 f   LIBCMTD:wctomb.obj
 0001:00036620       __wctomb_lk                00437620 f   LIBCMTD:wctomb.obj
 0001:000366c0       __itoa                     004376c0 f   LIBCMTD:xtoa.obj
 0001:000367e0       __ltoa                     004377e0 f   LIBCMTD:xtoa.obj
 0001:00036820       __ultoa                    00437820 f   LIBCMTD:xtoa.obj
 0001:00036840       __i64toa                   00437840 f   LIBCMTD:xtoa.obj
 0001:00036990       __ui64toa                  00437990 f   LIBCMTD:xtoa.obj
 0001:000369b0       __snprintf                 004379b0 f   LIBCMTD:snprintf.obj
 0001:00036ab0       __vsnprintf                00437ab0 f   LIBCMTD:vsnprint.obj
 0001:00036bb0       _signal                    00437bb0 f   LIBCMTD:winsig.obj
 0001:00036e80       _raise                     00437e80 f   LIBCMTD:winsig.obj
 0001:00037120       ___fpecode                 00438120 f   LIBCMTD:winsig.obj
 0001:00037130       ___pxcptinfoptrs           00438130 f   LIBCMTD:winsig.obj
 0001:00037140       ___crtMessageBoxA          00438140 f   LIBCMTD:crtmbox.obj
 0001:00037200       _mbtowc                    00438200 f   LIBCMTD:mbtowc.obj
 0001:00037280       __mbtowc_lk                00438280 f   LIBCMTD:mbtowc.obj
 0001:000373e0       _isalpha                   004383e0 f   LIBCMTD:_ctype.obj
 0001:00037430       _isupper                   00438430 f   LIBCMTD:_ctype.obj
 0001:00037470       _islower                   00438470 f   LIBCMTD:_ctype.obj
 0001:000374b0       _isdigit                   004384b0 f   LIBCMTD:_ctype.obj
 0001:000374f0       _isxdigit                  004384f0 f   LIBCMTD:_ctype.obj
 0001:00037540       _isspace                   00438540 f   LIBCMTD:_ctype.obj
 0001:00037580       _ispunct                   00438580 f   LIBCMTD:_ctype.obj
 0001:000375c0       _isalnum                   004385c0 f   LIBCMTD:_ctype.obj
 0001:00037610       _isprint                   00438610 f   LIBCMTD:_ctype.obj
 0001:00037660       _isgraph                   00438660 f   LIBCMTD:_ctype.obj
 0001:000376b0       _iscntrl                   004386b0 f   LIBCMTD:_ctype.obj
 0001:000376f0       ___isascii                 004386f0 f   LIBCMTD:_ctype.obj
 0001:00037700       ___toascii                 00438700 f   LIBCMTD:_ctype.obj
 0001:00037710       ___iscsymf                 00438710 f   LIBCMTD:_ctype.obj
 0001:00037770       ___iscsym                  00438770 f   LIBCMTD:_ctype.obj
 0001:000377d0       __allshl                   004387d0 f   LIBCMTD:llshl.obj
 0001:000377f0       _ungetc                    004387f0 f   LIBCMTD:ungetc.obj
 0001:00037860       __ungetc_lk                00438860 f   LIBCMTD:ungetc.obj
 0001:000379a0       _memmove                   004389a0 f   LIBCMTD:memmove.obj
 0001:00037ce0       _strtol                    00438ce0 f   LIBCMTD:strtol.obj
 0001:00038040       _strtoul                   00439040 f   LIBCMTD:strtol.obj
 0001:00038060       _strstr                    00439060 f   LIBCMTD:strstr.obj
 0001:000380e0       __statusfp                 004390e0 f   LIBCMTD:ieee87.obj
 0001:00038100       __clearfp                  00439100 f   LIBCMTD:ieee87.obj
 0001:00038120       __control87                00439120 f   LIBCMTD:ieee87.obj
 0001:00038170       __controlfp                00439170 f   LIBCMTD:ieee87.obj
 0001:00038190       __fpreset                  00439190 f   LIBCMTD:ieee87.obj
 0001:00038580       __ZeroTail                 00439580 f   LIBCMTD:intrncvt.obj
 0001:00038610       __IncMan                   00439610 f   LIBCMTD:intrncvt.obj
 0001:000386c0       __RoundMan                 004396c0 f   LIBCMTD:intrncvt.obj
 0001:000387a0       __CopyMan                  004397a0 f   LIBCMTD:intrncvt.obj
 0001:000387f0       __FillZeroMan              004397f0 f   LIBCMTD:intrncvt.obj
 0001:00038820       __IsZeroMan                00439820 f   LIBCMTD:intrncvt.obj
 0001:00038860       __ShrMan                   00439860 f   LIBCMTD:intrncvt.obj
 0001:00038950       __ld12cvt                  00439950 f   LIBCMTD:intrncvt.obj
 0001:00038ba0       __ld12tod                  00439ba0 f   LIBCMTD:intrncvt.obj
 0001:00038bc0       __ld12tof                  00439bc0 f   LIBCMTD:intrncvt.obj
 0001:00038be0       __ld12told                 00439be0 f   LIBCMTD:intrncvt.obj
 0001:00038ca0       __atodbl                   00439ca0 f   LIBCMTD:intrncvt.obj
 0001:00038ce0       __atoldbl                  00439ce0 f   LIBCMTD:intrncvt.obj
 0001:00038d20       __atoflt                   00439d20 f   LIBCMTD:intrncvt.obj
 0001:00038d60       __fptostr                  00439d60 f   LIBCMTD:_fptostr.obj
 0001:00038e60       __fltout2                  00439e60 f   LIBCMTD:cfout.obj
 0001:00038ee0       ___dtold                   00439ee0 f   LIBCMTD:cfout.obj
 0001:00039050       __fptrap                   0043a050 f   LIBCMTD:crt0fp.obj
 0001:00039060       __setmbcp                  0043a060 f   LIBCMTD:mbctype.obj
 0001:00039820       __getmbcp                  0043a820 f   LIBCMTD:mbctype.obj
 0001:00039840       ___initmbctable            0043a840 f   LIBCMTD:mbctype.obj
 0001:00039870       ___strgtold12              0043a870 f   LIBCMTD:strgtold.obj
 0001:0003a3a0       ___STRINGTOLD              0043b3a0 f   LIBCMTD:strgtold.obj
 0001:0003a3f0       __strcmpi                  0043b3f0 f   LIBCMTD:stricmp.obj
 0001:0003a3f0       __stricmp                  0043b3f0 f   LIBCMTD:stricmp.obj
 0001:0003a4c0       _strrchr                   0043b4c0 f   LIBCMTD:strrchr.obj
 0001:0003a4f0       __getcwd                   0043b4f0 f   LIBCMTD:getcwd.obj
 0001:0003a530       __getdcwd                  0043b530 f   LIBCMTD:getcwd.obj
 0001:0003a570       __getdcwd_lk               0043b570 f   LIBCMTD:getcwd.obj
 0001:0003a690       __validdrive               0043b690 f   LIBCMTD:getcwd.obj
 0001:0003a6e0       __toupper                  0043b6e0 f   LIBCMTD:toupper.obj
 0001:0003a6f0       _toupper                   0043b6f0 f   LIBCMTD:toupper.obj
 0001:0003a790       __toupper_lk               0043b790 f   LIBCMTD:toupper.obj
 0001:0003a8c0       _strpbrk                   0043b8c0 f   LIBCMTD:strpbrk.obj
 0001:0003a900       ___crtCompareStringA       0043b900 f   LIBCMTD:a_cmp.obj
 0001:0003ad50       ___crtsetenv               0043bd50 f   LIBCMTD:setenv.obj
 0001:0003b1a0       __setmode                  0043c1a0 f   LIBCMTD:setmode.obj
 0001:0003b220       __setmode_lk               0043c220 f   LIBCMTD:setmode.obj
 0001:0003b2f0       ___init_time               0043c2f0 f   LIBCMTD:inittime.obj
 0001:0003bc70       ___init_numeric            0043cc70 f   LIBCMTD:initnum.obj
 0001:0003bfa0       ___init_monetary           0043cfa0 f   LIBCMTD:initmon.obj
 0001:0003c400       ___init_ctype              0043d400 f   LIBCMTD:initctyp.obj
 0001:0003c7a0       ___init_collate            0043d7a0 f   LIBCMTD:initcoll.obj
 0001:0003c7b0       _strcspn                   0043d7b0 f   LIBCMTD:strcspn.obj
 0001:0003c7f0       ___get_qualified_locale    0043d7f0 f   LIBCMTD:getqloc.obj
 0001:0003d590       ___addl                    0043e590 f   LIBCMTD:mantold.obj
 0001:0003d5d0       ___add_12                  0043e5d0 f   LIBCMTD:mantold.obj
 0001:0003d680       ___shl_12                  0043e680 f   LIBCMTD:mantold.obj
 0001:0003d6e0       ___shr_12                  0043e6e0 f   LIBCMTD:mantold.obj
 0001:0003d750       ___mtold12                 0043e750 f   LIBCMTD:mantold.obj
 0001:0003d890       _$I10_OUTPUT               0043e890 f   LIBCMTD:x10fout.obj
 0001:0003ddb0       ___ld12mul                 0043edb0 f   LIBCMTD:tenpow.obj
 0001:0003e1f0       ___multtenpow12            0043f1f0 f   LIBCMTD:tenpow.obj
 0001:0003e2c0       __mbschr                   0043f2c0 f   LIBCMTD:mbschr.obj
 0001:0003e3b0       __Getdays                  0043f3b0 f   LIBCMTD:strftime.obj
 0001:0003e4e0       __Getmonths                0043f4e0 f   LIBCMTD:strftime.obj
 0001:0003e610       __Gettnames                0043f610 f   LIBCMTD:strftime.obj
 0001:0003e980       _strftime                  0043f980 f   LIBCMTD:strftime.obj
 0001:0003e9a0       __Strftime                 0043f9a0 f   LIBCMTD:strftime.obj
 0001:0003f8c0       ___getlocaleinfo           004408c0 f   LIBCMTD:inithelp.obj
 0001:0003fb50       _localeconv                00440b50 f   LIBCMTD:lconv.obj
 0001:0003fb60       ___crtGetStringTypeW       00440b60 f   LIBCMTD:w_str.obj
 0001:0003fdd0       __strnicmp                 00440dd0 f   LIBCMTD:strnicmp.obj
 0001:0003fee0       ___crtGetLocaleInfoW       00440ee0 f   LIBCMTD:w_loc.obj
 0001:00040080       ___crtGetLocaleInfoA       00441080 f   LIBCMTD:a_loc.obj
 0001:00040230       _IsBadWritePtr@8           00441230 f   kernel32:KERNEL32.dll
 0001:00040236       _IsBadReadPtr@8            00441236 f   kernel32:KERNEL32.dll
 0001:0004023c       _HeapValidate@12           0044123c f   kernel32:KERNEL32.dll
 0001:00040242       _ExitProcess@4             00441242 f   kernel32:KERNEL32.dll
 0001:00040248       _TerminateProcess@8        00441248 f   kernel32:KERNEL32.dll
 0001:0004024e       _GetCurrentProcess@0       0044124e f   kernel32:KERNEL32.dll
 0001:00040254       _EnterCriticalSection@4    00441254 f   kernel32:KERNEL32.dll
 0001:0004025a       _LeaveCriticalSection@4    0044125a f   kernel32:KERNEL32.dll
 0001:00040260       _GetCommandLineA@0         00441260 f   kernel32:KERNEL32.dll
 0001:00040266       _GetVersion@0              00441266 f   kernel32:KERNEL32.dll
 0001:0004026c       _GetTimeZoneInformation@4  0044126c f   kernel32:KERNEL32.dll
 0001:00040272       _GetSystemTime@4           00441272 f   kernel32:KERNEL32.dll
 0001:00040278       _GetLocalTime@4            00441278 f   kernel32:KERNEL32.dll
 0001:0004027e       _GetSystemTimeAsFileTime@4 0044127e f   kernel32:KERNEL32.dll
 0001:00040284       _GetLastError@0            00441284 f   kernel32:KERNEL32.dll
 0001:0004028a       _CreateDirectoryA@8        0044128a f   kernel32:KERNEL32.dll
 0001:00040290       _FindClose@4               00441290 f   kernel32:KERNEL32.dll
 0001:00040296       _FileTimeToSystemTime@8    00441296 f   kernel32:KERNEL32.dll
 0001:0004029c       _FileTimeToLocalFileTime@8 0044129c f   kernel32:KERNEL32.dll
 0001:000402a2       _GetDriveTypeA@4           004412a2 f   kernel32:KERNEL32.dll
 0001:000402a8       _FindFirstFileA@8          004412a8 f   kernel32:KERNEL32.dll
 0001:000402ae       _FindNextFileA@8           004412ae f   kernel32:KERNEL32.dll
 0001:000402b4       _GetFileType@4             004412b4 f   kernel32:KERNEL32.dll
 0001:000402ba       _CreateFileA@28            004412ba f   kernel32:KERNEL32.dll
 0001:000402c0       _ReadFile@20               004412c0 f   kernel32:KERNEL32.dll
 0001:000402c6       _InterlockedDecrement@4    004412c6 f   kernel32:KERNEL32.dll
 0001:000402cc       _InterlockedIncrement@4    004412cc f   kernel32:KERNEL32.dll
 0001:000402d2       _DebugBreak@0              004412d2 f   kernel32:KERNEL32.dll
 0001:000402d8       _GetStdHandle@4            004412d8 f   kernel32:KERNEL32.dll
 0001:000402de       _WriteFile@20              004412de f   kernel32:KERNEL32.dll
 0001:000402e4       _OutputDebugStringA@4      004412e4 f   kernel32:KERNEL32.dll
 0001:000402ea       _GetProcAddress@8          004412ea f   kernel32:KERNEL32.dll
 0001:000402f0       _LoadLibraryA@4            004412f0 f   kernel32:KERNEL32.dll
 0001:000402f6       _GetModuleFileNameA@12     004412f6 f   kernel32:KERNEL32.dll
 0001:000402fc       _InitializeCriticalSection@4 004412fc f   kernel32:KERNEL32.dll
 0001:00040302       _DeleteCriticalSection@4   00441302 f   kernel32:KERNEL32.dll
 0001:00040308       _FatalAppExitA@8           00441308 f   kernel32:KERNEL32.dll
 0001:0004030e       _RtlUnwind@16              0044130e f   kernel32:KERNEL32.dll
 0001:00040314       _HeapAlloc@12              00441314 f   kernel32:KERNEL32.dll
 0001:0004031a       _HeapReAlloc@16            0044131a f   kernel32:KERNEL32.dll
 0001:00040320       _HeapFree@12               00441320 f   kernel32:KERNEL32.dll
 0001:00040326       _VirtualFree@12            00441326 f   kernel32:KERNEL32.dll
 0001:0004032c       _VirtualAlloc@16           0044132c f   kernel32:KERNEL32.dll
 0001:00040332       _GetModuleHandleA@4        00441332 f   kernel32:KERNEL32.dll
 0001:00040338       _GetEnvironmentVariableA@12 00441338 f   kernel32:KERNEL32.dll
 0001:0004033e       _GetVersionExA@4           0044133e f   kernel32:KERNEL32.dll
 0001:00040344       _HeapDestroy@4             00441344 f   kernel32:KERNEL32.dll
 0001:0004034a       _HeapCreate@12             0044134a f   kernel32:KERNEL32.dll
 0001:00040350       _SetHandleCount@4          00441350 f   kernel32:KERNEL32.dll
 0001:00040356       _GetStartupInfoA@4         00441356 f   kernel32:KERNEL32.dll
 0001:0004035c       _UnhandledExceptionFilter@4 0044135c f   kernel32:KERNEL32.dll
 0001:00040362       _FreeEnvironmentStringsA@4 00441362 f   kernel32:KERNEL32.dll
 0001:00040368       _FreeEnvironmentStringsW@4 00441368 f   kernel32:KERNEL32.dll
 0001:0004036e       _WideCharToMultiByte@32    0044136e f   kernel32:KERNEL32.dll
 0001:00040374       _GetEnvironmentStrings@0   00441374 f   kernel32:KERNEL32.dll
 0001:0004037a       _GetEnvironmentStringsW@0  0044137a f   kernel32:KERNEL32.dll
 0001:00040380       _GetCurrentThreadId@0      00441380 f   kernel32:KERNEL32.dll
 0001:00040386       _TlsSetValue@8             00441386 f   kernel32:KERNEL32.dll
 0001:0004038c       _TlsAlloc@0                0044138c f   kernel32:KERNEL32.dll
 0001:00040392       _TlsFree@4                 00441392 f   kernel32:KERNEL32.dll
 0001:00040398       _SetLastError@4            00441398 f   kernel32:KERNEL32.dll
 0001:0004039e       _TlsGetValue@4             0044139e f   kernel32:KERNEL32.dll
 0001:000403a4       _GetCurrentThread@0        004413a4 f   kernel32:KERNEL32.dll
 0001:000403aa       _MultiByteToWideChar@24    004413aa f   kernel32:KERNEL32.dll
 0001:000403b0       _GetStringTypeA@20         004413b0 f   kernel32:KERNEL32.dll
 0001:000403b6       _GetStringTypeW@16         004413b6 f   kernel32:KERNEL32.dll
 0001:000403bc       _SetStdHandle@8            004413bc f   kernel32:KERNEL32.dll
 0001:000403c2       _GetFullPathNameA@16       004413c2 f   kernel32:KERNEL32.dll
 0001:000403c8       _GetCurrentDirectoryA@8    004413c8 f   kernel32:KERNEL32.dll
 0001:000403ce       _SetCurrentDirectoryA@4    004413ce f   kernel32:KERNEL32.dll
 0001:000403d4       _SetEndOfFile@4            004413d4 f   kernel32:KERNEL32.dll
 0001:000403da       _SetFilePointer@16         004413da f   kernel32:KERNEL32.dll
 0001:000403e0       _Sleep@4                   004413e0 f   kernel32:KERNEL32.dll
 0001:000403e6       _LCMapStringA@24           004413e6 f   kernel32:KERNEL32.dll
 0001:000403ec       _LCMapStringW@24           004413ec f   kernel32:KERNEL32.dll
 0001:000403f2       _FlushFileBuffers@4        004413f2 f   kernel32:KERNEL32.dll
 0001:000403f8       _SetConsoleCtrlHandler@8   004413f8 f   kernel32:KERNEL32.dll
 0001:000403fe       _GetCPInfo@8               004413fe f   kernel32:KERNEL32.dll
 0001:00040404       _GetACP@0                  00441404 f   kernel32:KERNEL32.dll
 0001:0004040a       _GetOEMCP@0                0044140a f   kernel32:KERNEL32.dll
 0001:00040410       _CompareStringA@24         00441410 f   kernel32:KERNEL32.dll
 0001:00040416       _CompareStringW@24         00441416 f   kernel32:KERNEL32.dll
 0001:0004041c       _SetEnvironmentVariableA@8 0044141c f   kernel32:KERNEL32.dll
 0001:00040422       _IsValidLocale@8           00441422 f   kernel32:KERNEL32.dll
 0001:00040428       _IsValidCodePage@4         00441428 f   kernel32:KERNEL32.dll
 0001:0004042e       _GetLocaleInfoA@16         0044142e f   kernel32:KERNEL32.dll
 0001:00040434       _EnumSystemLocalesA@8      00441434 f   kernel32:KERNEL32.dll
 0001:0004043a       _GetUserDefaultLCID@0      0044143a f   kernel32:KERNEL32.dll
 0001:00040440       _GetLocaleInfoW@16         00441440 f   kernel32:KERNEL32.dll
 0001:00040450       _remove                    00441450 f   LIBCMTD:unlink.obj
 0001:000404a0       _unlink                    004414a0 f   LIBCMTD:unlink.obj
 0001:000404a0       __unlink                   004414a0 f   LIBCMTD:unlink.obj
 0001:000404c0       _tell                      004414c0 f   LIBCMTD:tell.obj
 0001:000404c0       __tell                     004414c0 f   LIBCMTD:tell.obj
 0001:000404e0       _swab                      004414e0 f   LIBCMTD:swab.obj
 0001:000404e0       __swab                     004414e0 f   LIBCMTD:swab.obj
 0001:00040540       _getpid                    00441540 f   LIBCMTD:getpid.obj
 0001:00040540       __getpid                   00441540 f   LIBCMTD:getpid.obj
 0001:0004054c       _DeleteFileA@4             0044154c f   kernel32:KERNEL32.dll
 0001:00040552       _GetCurrentProcessId@0     00441552 f   kernel32:KERNEL32.dll
 0001:00050fa0       __enc$textbss$begin        00451fa0     <linker-defined>
 0001:000712a0       __enc$textbss$end          004722a0     <linker-defined>
 0002:0000001c       ??_C@_05IPJG@?$CFs?3?$CFs?$AA@ 0047301c     send_image.obj
 0002:00000024       ??_C@_0M@DEJO@NETWORK?5TCP?$AA@ 00473024     send_image.obj
 0002:00000034       ??_C@_0N@ECPC@AE?5REQUESTOR?$AA@ 00473034     send_image.obj
 0002:00000044       ??_C@_01FAJB@?$DL?$AA@     00473044     send_image.obj
 0002:00000048       ??_C@_03EMGA@SRV?$AA@      00473048     send_image.obj
 0002:0000004c       ??_C@_03BKNI@DUL?$AA@      0047304c     send_image.obj
 0002:00000050       ??_C@_03KNBJ@DCM?$AA@      00473050     send_image.obj
 0002:00000054       ??_C@_06LEAO@REPEAT?$AA@   00473054     send_image.obj
 0002:0000005c       ??_C@_03JGAL@?$CFlu?$AA@   0047305c     send_image.obj
 0002:00000060       ??_C@_02MECO@?$CFd?$AA@    00473060     send_image.obj
 0002:00000064       ??_C@_0DK@DDGC@1?42?4840?410008?41?42?41?$DL1?42?4840?41000@ 00473064     send_image.obj
 0002:000000ac       ??_C@_0BA@BBPP@MIRCTN11MAR2003?$AA@ 004730ac     send_image.obj
 0002:000000c0       ??_C@_0BO@IHIF@1?42?4840?4113654?42?43?41995?43?40?46?$AA@ 004730c0     send_image.obj
 0002:000000e4       ??_C@_0M@PCPM@called?5addr?$AA@ 004730e4     send_image.obj
 0002:000000f4       ??_C@_0N@EJJA@calling?5addr?$AA@ 004730f4     send_image.obj
 0002:00000104       ??_C@_00A@?$AA@            00473104     send_image.obj
 0002:00000108       ??_C@_0O@GBGI@DICOM_STORAGE?$AA@ 00473108     send_image.obj
 0002:00000118       ??_C@_0L@HMIO@DICOM_TEST?$AA@ 00473118     send_image.obj
 0002:00000128       ??_C@_0BG@GIMN@1?42?4840?410008?43?41?41?41?$AA@ 00473128     send_image.obj
 0002:00000144       ??_C@_0DA@KIGH@?$CF10d?5bytes?5transfer?5in?5?$CF7?43f?5sec@ 00473144     send_image.obj
 0002:00000180       __real@8@4008fa00000000000000 00473180     send_image.obj
 0002:0000018c       ??_C@_03HHKO@?$CFs?6?$AA@  0047318c     send_image.obj
 0002:00000190       ??_C@_01FDLN@?1?$AA@       00473190     send_image.obj
 0002:00000194       ??_C@_02OOND@?4?4?$AA@     00473194     send_image.obj
 0002:00000198       ??_C@_01PJCK@?4?$AA@       00473198     send_image.obj
 0002:0000019c       ??_C@_0CM@EPHE@Could?5not?5parse?5image?5for?5pixel?5@ 0047319c     send_image.obj
 0002:000001d0       ??_C@_0DB@NFEL@Unable?5to?5get?5Transfer?5Syntax?5fr@ 004731d0     send_image.obj
 0002:0000020c       ??_C@_0BE@FNMH@1?42?4840?410008?41?42?42?$AA@ 0047320c     send_image.obj
 0002:00000224       ??_C@_0BE@KCHO@1?42?4840?410008?41?42?41?$AA@ 00473224     send_image.obj
 0002:0000023c       ??_C@_0BC@OEFB@1?42?4840?410008?41?42?$AA@ 0047323c     send_image.obj
 0002:00000254       ??_C@_0P@OGKF@context?5string?$AA@ 00473254     send_image.obj
 0002:00000268       ??_C@_0CD@JDPE@?$CF8d?5bytes?5transmitted?5of?5?$CF8d?5?$CI?$CFs@ 00473268     send_image.obj
 0002:00000294       ??_C@_0BO@KHKP@Initial?5call?5to?5sendCallback?6?$AA@ 00473294     send_image.obj
 0002:000002b8       ??_C@_0ELC@BHMA@send_image?5?$FL?9a?5application?$FN?5?$FL?9c?5@ 004732b8     send_image.obj
 0002:0000085c       ??_C@_0NG@KHIB@The?5returned?5condition?5implies?5t@ 0047385c     send_image.obj
 0002:0000095c       ??_C@_0P@NCLG@Abnormal?5exit?6?$AA@ 0047395c     send_image.obj
 0002:00000970       ??_C@_0CD@OILO@Association?5accepted?0?5parameters@ 00473970     send_image.obj
 0002:0000099c       ??_C@_0CE@PEFA@?5Result?3?5?$CF2x?5Source?5?$CF2x?5Reason?5?$CF@ 0047399c     send_image.obj
 0002:000009c8       ??_C@_0BG@BCGC@Association?5Rejected?6?$AA@ 004739c8     send_image.obj
 0002:000009e4       ??_C@_0N@MDGD@CTN?9MUTEX?9?$CFd?$AA@ 004739e4     ctn_lib:ctnthread.obj
 0002:000009f4       ??_C@_0DB@NBC@Threads?5not?5initialized?5in?5call?5@ 004739f4     ctn_lib:ctnthread.obj
 0002:00000a28       ??_C@_0N@NPOP@?$CF04d?$CF02d?$CF02d?$AA@ 00473a28     ctn_lib:utility.obj
 0002:00000a38       __real@8@4004f000000000000000 00473a38     ctn_lib:utility.obj
 0002:00000a40       __real@8@400ae100000000000000 00473a40     ctn_lib:utility.obj
 0002:00000a48       __real@8@4002a000000000000000 00473a48     ctn_lib:utility.obj
 0002:00000a50       ??_C@_0BC@GBBF@?$CF02d?$CF02d?$CF02d?4?$CF06d?$AA@ 00473a50     ctn_lib:utility.obj
 0002:00000a68       __real@8@3ffe8000000000000000 00473a68     ctn_lib:utility.obj
 0002:00000a70       __real@8@4012f424000000000000 00473a70     ctn_lib:utility.obj
 0002:00000a78       ??_C@_09PMPP@UTL?5STAMP?$AA@ 00473a78     ctn_lib:utility.obj
 0002:00000a88       __real@8@bfff8000000000000000 00473a88     ctn_lib:utility.obj
 0002:00000a90       ??_C@_0BB@BLMA@Stat?5Count?5?$DN?5?$CFd?6?$AA@ 00473a90     ctn_lib:utility.obj
 0002:00000aa4       ??_C@_02FCCF@?1?$CK?$AA@   00473aa4     ctn_lib:utility.obj
 0002:00000aa8       ??_C@_03OALN@?5?7?6?$AA@   00473aa8     ctn_lib:utility.obj
 0002:00000aac       ??_C@_01LHO@r?$AA@         00473aac     ctn_lib:utility.obj
 0002:00000ab0       ??_C@_0BF@FBKP@?1runtime?1ctn_cfg?4txt?$AA@ 00473ab0     ctn_lib:utility.obj
 0002:00000ac8       ??_C@_0L@CJEE@CTN_TARGET?$AA@ 00473ac8     ctn_lib:utility.obj
 0002:00000ad4       ??_C@_06BLHP@SCUSCP?$AA@   00473ad4     ctn_lib:dulprotocol.obj
 0002:00000adc       ??_C@_03MPBB@SCP?$AA@      00473adc     ctn_lib:dulprotocol.obj
 0002:00000ae0       ??_C@_03MPNK@SCU?$AA@      00473ae0     ctn_lib:dulprotocol.obj
 0002:00000ae4       ??_C@_07IOPL@Default?$AA@  00473ae4     ctn_lib:dulprotocol.obj
 0002:00000aec       ??_C@_0BA@FPEL@DUL_DropNetwork?$AA@ 00473aec     ctn_lib:dulprotocol.obj
 0002:00000afc       ??_C@_0BH@OAMI@DUL_RequestAssociation?$AA@ 00473afc     ctn_lib:dulprotocol.obj
 0002:00000b14       ??_C@_08ILBF@?$CF?$FL?$FO?3?$FN?3?$CFd?$AA@ 00473b14     ctn_lib:dulprotocol.obj
 0002:00000b20       ??_C@_0BD@HIC@Writing?5to?5network?$AA@ 00473b20     ctn_lib:dulprotocol.obj
 0002:00000b34       ??_C@_06MGDF@maxPDU?$AA@   00473b34     ctn_lib:dulprotocol.obj
 0002:00000b3c       ??_C@_0CA@MBIO@DUL_RequestAssociationWithProxy?$AA@ 00473b3c     ctn_lib:dulprotocol.obj
 0002:00000b5c       ??_C@_0BO@OPPM@DUL_ReceiveAssociationRequest?$AA@ 00473b5c     ctn_lib:dulprotocol.obj
 0002:00000b7c       ??_C@_0BJ@DIB@DUL_ReceiveAssociationRQ?$AA@ 00473b7c     ctn_lib:dulprotocol.obj
 0002:00000b98       ??_C@_0CC@BDMD@DUL_ReceiveAssociationRQWithProx@ 00473b98     ctn_lib:dulprotocol.obj
 0002:00000bbc       ??_C@_07PKPP@AE?5BOTH?$AA@ 00473bbc     ctn_lib:dulprotocol.obj
 0002:00000bc4       ??_C@_0BN@KDDP@DUL_AcknowledgeAssociationRQ?$AA@ 00473bc4     ctn_lib:dulprotocol.obj
 0002:00000be4       ??_C@_0BI@GILH@DUL_RejectAssociationRQ?$AA@ 00473be4     ctn_lib:dulprotocol.obj
 0002:00000bfc       ??_C@_0BE@OKOA@DUL_DropAssociation?$AA@ 00473bfc     ctn_lib:dulprotocol.obj
 0002:00000c10       ??_C@_0DB@ECII@DUL_ReleaseAssociation?3?3?5final?5c@ 00473c10     ctn_lib:dulprotocol.obj
 0002:00000c44       ??_C@_0DC@PDFJ@DUL_ReleaseAssociation?3?3?5event?5?$DN@ 00473c44     ctn_lib:dulprotocol.obj
 0002:00000c78       ??_C@_0DH@KDAB@DUL_ReleaseAssociation?3?3?5event?5?$DN@ 00473c78     ctn_lib:dulprotocol.obj
 0002:00000cb0       ??_C@_0DH@CMMD@DUL_ReleaseAssociation?3?3?5event?5?$DN@ 00473cb0     ctn_lib:dulprotocol.obj
 0002:00000ce8       ??_C@_0DF@BPAI@DUL_ReleaseAssociation?3?3?5event?5?$DN@ 00473ce8     ctn_lib:dulprotocol.obj
 0002:00000d20       ??_C@_0DK@OIFF@DUL_ReleaseAssociation?3?3?5event?5?$DN@ 00473d20     ctn_lib:dulprotocol.obj
 0002:00000d5c       ??_C@_0DK@DODD@DUL_ReleaseAssociation?3?3?5event?5?$DN@ 00473d5c     ctn_lib:dulprotocol.obj
 0002:00000d98       ??_C@_0DK@CLEH@DUL_ReleaseAssociation?3?3?5event?5?$DN@ 00473d98     ctn_lib:dulprotocol.obj
 0002:00000dd4       ??_C@_0DF@EHOL@DUL_ReleaseAssociation?3?3?5non?9nor@ 00473dd4     ctn_lib:dulprotocol.obj
 0002:00000e0c       ??_C@_0DB@CCCA@DUL_ReleaseAssociation?3?3?5event?5?$DN@ 00473e0c     ctn_lib:dulprotocol.obj
 0002:00000e40       ??_C@_0DC@ODLN@DUL_ReleaseAssociation?3?3?5event?5?$DN@ 00473e40     ctn_lib:dulprotocol.obj
 0002:00000e74       ??_C@_0BH@EMDN@DUL_ReleaseAssociation?$AA@ 00473e74     ctn_lib:dulprotocol.obj
 0002:00000e8c       ??_C@_0BH@HDLK@DUL_AcknowledgeRelease?$AA@ 00473e8c     ctn_lib:dulprotocol.obj
 0002:00000ea4       ??_C@_0BF@KLIN@DUL_AbortAssociation?$AA@ 00473ea4     ctn_lib:dulprotocol.obj
 0002:00000ebc       ??_C@_0O@PAF@DUL_WritePDVs?$AA@ 00473ebc     ctn_lib:dulprotocol.obj
 0002:00000ecc       ??_C@_0N@DIIK@DUL_ReadPDVs?$AA@ 00473ecc     ctn_lib:dulprotocol.obj
 0002:00000edc       ??_C@_0BD@HIDK@DUL_K_MAX_PDU_XMIT?$AA@ 00473edc     ctn_lib:dulprotocol.obj
 0002:00000ef0       ??_C@_0BJ@MGFL@DUL_AssociationParameter?$AA@ 00473ef0     ctn_lib:dulprotocol.obj
 0002:00000f0c       ??_C@_0M@LCJO@DUL_NextPDV?$AA@ 00473f0c     ctn_lib:dulprotocol.obj
 0002:00000f18       ??_C@_05PHOA@?$CF?$FL?$FO?4?$FN?$AA@ 00473f18     ctn_lib:dulprotocol.obj
 0002:00000f20       ??_C@_0BA@FOMA@?$CF?9d?4?$CF?9d?4?$CF?9d?4?$CF?9d?$AA@ 00473f20     ctn_lib:dulprotocol.obj
 0002:00000f30       ??_C@_0BB@KCHG@In?5?$CFs?0?5socket?5?$CFd?$AA@ 00473f30     ctn_lib:dulprotocol.obj
 0002:00000f44       ??_C@_0BO@HEAL@Accept?5Error?5In?5?$CFs?0?5socket?5?$CFd?$AA@ 00473f44     ctn_lib:dulprotocol.obj
 0002:00000f64       ??_C@_0BO@FGGA@receiveTransportConnectionTCP?$AA@ 00473f64     ctn_lib:dulprotocol.obj
 0002:00000f84       ??_C@_0DO@FGDB@?$CK?$CK?$CK?$CK?$CK?$CK?$CK?$CK?$CK?$CK?$CK?$CK?$CKAFTER?5ACCEPT?$CIsock?3?5@ 00473f84     ctn_lib:dulprotocol.obj
 0002:00000fc4       ??_C@_0CM@IDCJ@?6?6?6?$CK?$CK?$CK?$CK?$CK?$CK?$CK?$CK?$CK?$CK?$CK?$CK?$CKBEFORE?5ACCEPT?$CK?$CK?$CK@ 00473fc4     ctn_lib:dulprotocol.obj
 0002:00000ff0       ??_C@_0M@EOOM@KEY?5NETWORK?$AA@ 00473ff0     ctn_lib:dulprotocol.obj
 0002:00000ffc       ??_C@_0M@OAHH@AE?5ACCEPTOR?$AA@ 00473ffc     ctn_lib:dulprotocol.obj
 0002:00001008       ??_C@_0BG@PFMO@?$CK?$CK?$CKAFTER?5LISTEN?$CK?$CK?$CK?6?6?6?$AA@ 00474008     ctn_lib:dulprotocol.obj
 0002:00001020       ??_C@_0BI@LGEA@?6?6?6?$CK?$CK?$CKBEFORE?5LISTEN?$CK?$CK?$CK?6?$AA@ 00474020     ctn_lib:dulprotocol.obj
 0002:00001038       ??_C@_0BA@POMM@KEY?5ASSOCIATION?$AA@ 00474038     ctn_lib:dulprotocol.obj
 0002:00001048       ??_C@_0BC@JMF@TCP_BUFFER_LENGTH?$AA@ 00474048     ctn_lib:dulprotocol.obj
 0002:0000105c       ??_C@_0BL@EGOA@Accepted?5Presentation?5Ctx?6?$AA@ 0047405c     ctn_lib:dulprotocol.obj
 0002:00001078       ??_C@_0BM@OCHO@Requested?5Presentation?5Ctx?6?$AA@ 00474078     ctn_lib:dulprotocol.obj
 0002:00001094       ??_C@_0BC@DEAM@ACC?5VERSION?3?5?5?$CFs?6?$AA@ 00474094     ctn_lib:dulprotocol.obj
 0002:000010a8       ??_C@_0BC@GHMM@ACC?5IMP?5UID?3?5?5?$CFs?6?$AA@ 004740a8     ctn_lib:dulprotocol.obj
 0002:000010bc       ??_C@_0BC@BLI@REQ?5VERSION?3?5?5?$CFs?6?$AA@ 004740bc     ctn_lib:dulprotocol.obj
 0002:000010d0       ??_C@_0BC@FCHI@REQ?5IMP?5UID?3?5?5?$CFs?6?$AA@ 004740d0     ctn_lib:dulprotocol.obj
 0002:000010e4       ??_C@_0BC@NDLN@PRES?5ADDR?3?5?5?5?5?$CFs?6?$AA@ 004740e4     ctn_lib:dulprotocol.obj
 0002:000010f8       ??_C@_0BC@KNKH@Peer?5MAX?5PDU?3?5?$CFd?6?$AA@ 004740f8     ctn_lib:dulprotocol.obj
 0002:0000110c       ??_C@_0BC@BHLL@MAX?5PDU?3?5?5?5?5?5?5?$CFd?6?$AA@ 0047410c     ctn_lib:dulprotocol.obj
 0002:00001120       ??_C@_0BC@JKJC@AP?5TITLE?3?5?5?5?5?5?$CFs?6?$AA@ 00474120     ctn_lib:dulprotocol.obj
 0002:00001134       ??_C@_04OBM@?$CF13s?$AA@   00474134     ctn_lib:dulprotocol.obj
 0002:0000113c       ??_C@_0BB@PHL@APP?5CTX?5NAME?3?$CFs?6?$AA@ 0047413c     ctn_lib:dulprotocol.obj
 0002:00001150       ??_C@_0BM@CHEL@?5?5Accepted?5Xfer?5Syntax?3?5?$CFs?6?$AA@ 00474150     ctn_lib:dulprotocol.obj
 0002:0000116c       ??_C@_04IALH@?$CF18s?$AA@  0047416c     ctn_lib:dulprotocol.obj
 0002:00001174       ??_C@_0BG@CDLA@?5?5?5?5?5?5?5?5?5?5?5?5?5?5?5?5?5?5?$CFs?6?$AA@ 00474174     ctn_lib:dulprotocol.obj
 0002:0000118c       ??_C@_0BM@KOGJ@?5?5Proposed?5Xfer?5Syntax?$CIes?$CJ?6?$AA@ 0047418c     ctn_lib:dulprotocol.obj
 0002:000011a8       ??_C@_0BO@ILBB@?5?5Accepted?5SCU?1SCP?5Role?3?5?5?$CFs?6?$AA@ 004741a8     ctn_lib:dulprotocol.obj
 0002:000011c8       ??_C@_0BO@DOMK@?5?5Proposed?5SCU?1SCP?5Role?3?5?5?$CFs?6?$AA@ 004741c8     ctn_lib:dulprotocol.obj
 0002:000011e8       ??_C@_0BM@OJAF@?5?5Result?5field?3?5?5?5?5?5?5?5?5?5?$CFd?6?$AA@ 004741e8     ctn_lib:dulprotocol.obj
 0002:00001204       ??_C@_04JJHC@?$CF24s?$AA@  00474204     ctn_lib:dulprotocol.obj
 0002:0000120c       ??_C@_0BM@FGKO@?5?5Abstract?5Syntax?3?5?5?5?5?5?5?$CFs?6?$AA@ 0047420c     ctn_lib:dulprotocol.obj
 0002:00001228       ??_C@_0BM@NMCG@?5?5Context?5ID?3?5?5?5?5?5?5?5?5?5?5?5?$CFd?6?$AA@ 00474228     ctn_lib:dulprotocol.obj
 0002:00001244       ??_C@_0N@OKIB@Unknown?5UID?6?$AA@ 00474244     ctn_lib:dulprotocol.obj
 0002:00001254       ??_C@_07CGGB@?$CFs?0?5?$CFs?6?$AA@ 00474254     ctn_lib:dulprotocol.obj
 0002:0000125c       ??_C@_07KMFA@No?5UID?6?$AA@ 0047425c     ctn_lib:dulprotocol.obj
 0002:00001264       ??_C@_01FCOA@?5?$AA@       00474264     ctn_lib:dulprotocol.obj
 0002:00001268       ??_C@_0BG@DJOF@1?42?4840?4113654?42?430?42?$AA@ 00474268     ctn_lib:srv1.obj
 0002:00001280       ??_C@_0BG@MGFM@1?42?4840?4113654?42?430?41?$AA@ 00474280     ctn_lib:srv1.obj
 0002:00001298       ??_C@_0BL@KBNI@1?42?4840?410008?45?41?44?434?44?43?$AA@ 00474298     ctn_lib:srv1.obj
 0002:000012b4       ??_C@_0BH@OPOJ@1?42?4840?410008?45?41?44?433?$AA@ 004742b4     ctn_lib:srv1.obj
 0002:000012cc       ??_C@_0BI@LIFE@1?42?4840?410008?43?41?42?43?43?$AA@ 004742cc     ctn_lib:srv1.obj
 0002:000012e4       ??_C@_0BJ@PMKE@1?42?4840?410008?45?41?44?432?43?$AA@ 004742e4     ctn_lib:srv1.obj
 0002:00001300       ??_C@_0BJ@FGDD@1?42?4840?410008?45?41?44?432?42?$AA@ 00474300     ctn_lib:srv1.obj
 0002:0000131c       ??_C@_0BJ@KJIK@1?42?4840?410008?45?41?44?432?41?$AA@ 0047431c     ctn_lib:srv1.obj
 0002:00001338       ??_C@_0BH@LKMH@1?42?4840?410008?45?41?44?431?$AA@ 00474338     ctn_lib:srv1.obj
 0002:00001350       ??_C@_0BF@MFKF@1?42?4840?410008?41?420?41?$AA@ 00474350     ctn_lib:srv1.obj
 0002:00001368       ??_C@_0BI@KLFB@1?42?4840?410008?43?41?42?45?45?$AA@ 00474368     ctn_lib:srv1.obj
 0002:00001380       ??_C@_0BI@BCMD@1?42?4840?410008?43?41?42?43?42?$AA@ 00474380     ctn_lib:srv1.obj
 0002:00001398       ??_C@_0BI@BMG@1?42?4840?410008?43?41?42?45?44?$AA@ 00474398     ctn_lib:srv1.obj
 0002:000013b0       ??_C@_0BI@PHDG@1?42?4840?410008?43?41?42?46?41?$AA@ 004743b0     ctn_lib:srv1.obj
 0002:000013c8       ??_C@_0BI@BAN@1?42?4840?410008?43?41?42?45?41?$AA@ 004743c8     ctn_lib:srv1.obj
 0002:000013e0       ??_C@_0BI@ONHK@1?42?4840?410008?43?41?42?43?41?$AA@ 004743e0     ctn_lib:srv1.obj
 0002:000013f8       ??_C@_0BI@EJJM@1?42?4840?410008?43?41?42?41?44?$AA@ 004743f8     ctn_lib:srv1.obj
 0002:00001410       ??_C@_0BI@LPGM@1?42?4840?410008?43?41?42?42?41?$AA@ 00474410     ctn_lib:srv1.obj
 0002:00001428       ??_C@_0BI@EJFH@1?42?4840?410008?43?41?42?41?41?$AA@ 00474428     ctn_lib:srv1.obj
 0002:00001440       ??_C@_0BH@NJKH@1?42?4840?410008?45?41?41?418?$AA@ 00474440     ctn_lib:srv1.obj
 0002:00001458       ??_C@_0BG@NLAI@1?42?4840?410008?45?41?41?49?$AA@ 00474458     ctn_lib:srv1.obj
 0002:00001470       ??_C@_0BM@JIHB@1?42?4840?410008?45?41?44?41?42?43?43?$AA@ 00474470     ctn_lib:srv1.obj
 0002:0000148c       ??_C@_0BM@DCOG@1?42?4840?410008?45?41?44?41?42?43?42?$AA@ 0047448c     ctn_lib:srv1.obj
 0002:000014a8       ??_C@_0BM@MNFP@1?42?4840?410008?45?41?44?41?42?43?41?$AA@ 004744a8     ctn_lib:srv1.obj
 0002:000014c4       ??_C@_0BM@MKGH@1?42?4840?410008?45?41?44?41?42?42?43?$AA@ 004744c4     ctn_lib:srv1.obj
 0002:000014e0       ??_C@_0BM@GAPA@1?42?4840?410008?45?41?44?41?42?42?42?$AA@ 004744e0     ctn_lib:srv1.obj
 0002:000014fc       ??_C@_0BM@JPEJ@1?42?4840?410008?45?41?44?41?42?42?41?$AA@ 004744fc     ctn_lib:srv1.obj
 0002:00001518       ??_C@_0BM@DMFM@1?42?4840?410008?45?41?44?41?42?41?43?$AA@ 00474518     ctn_lib:srv1.obj
 0002:00001534       ??_C@_0BM@JGML@1?42?4840?410008?45?41?44?41?42?41?42?$AA@ 00474534     ctn_lib:srv1.obj
 0002:00001550       ??_C@_0BM@GJHC@1?42?4840?410008?45?41?44?41?42?41?41?$AA@ 00474550     ctn_lib:srv1.obj
 0002:0000156c       ??_C@_0BE@EDGI@1?43?412?42?41107?45?49?41?$AA@ 0047456c     ctn_lib:srv1.obj
 0002:00001580       ??_C@_0BN@ILIN@1?42?4840?410008?45?41?44?41?41?412?43?$AA@ 00474580     ctn_lib:srv1.obj
 0002:000015a0       ??_C@_0BK@IEOO@1?42?4840?410008?45?41?44?41?41?46?$AA@ 004745a0     ctn_lib:srv1.obj
 0002:000015bc       ??_C@_0BK@HLFH@1?42?4840?410008?45?41?44?41?41?45?$AA@ 004745bc     ctn_lib:srv1.obj
 0002:000015d8       ??_C@_0BK@IECF@1?42?4840?410008?45?41?44?41?41?43?$AA@ 004745d8     ctn_lib:srv1.obj
 0002:000015f4       ??_C@_0BH@ODAF@1?42?4840?410008?45?41?41?427?$AA@ 004745f4     ctn_lib:srv1.obj
 0002:0000160c       ??_C@_0BM@FIPC@1?42?4840?410008?45?41?44?41?41?4129?$AA@ 0047460c     ctn_lib:srv1.obj
 0002:00001628       ??_C@_0BL@LCNG@1?42?4840?410008?45?41?44?41?41?411?$AA@ 00474628     ctn_lib:srv1.obj
 0002:00001644       ??_C@_0BK@CPCE@1?42?4840?410008?45?41?44?41?41?48?$AA@ 00474644     ctn_lib:srv1.obj
 0002:00001660       ??_C@_0BL@BIEB@1?42?4840?410008?45?41?44?41?41?410?$AA@ 00474660     ctn_lib:srv1.obj
 0002:0000167c       ??_C@_0BK@IFLD@1?42?4840?410008?45?41?44?41?41?49?$AA@ 0047467c     ctn_lib:srv1.obj
 0002:00001698       ??_C@_0BH@EIMP@1?42?4840?410008?45?41?41?429?$AA@ 00474698     ctn_lib:srv1.obj
 0002:000016b0       ??_C@_0BH@KAEK@1?42?4840?410008?45?41?41?430?$AA@ 004746b0     ctn_lib:srv1.obj
 0002:000016c8       ??_C@_0BO@LPPD@1?42?4840?410008?45?41?44?41?41?4481?49?$AA@ 004746c8     ctn_lib:srv1.obj
 0002:000016e8       ??_C@_0BO@BFGE@1?42?4840?410008?45?41?44?41?41?4481?48?$AA@ 004746e8     ctn_lib:srv1.obj
 0002:00001708       ??_C@_0BO@BEDJ@1?42?4840?410008?45?41?44?41?41?4481?47?$AA@ 00474708     ctn_lib:srv1.obj
 0002:00001728       ??_C@_0BO@LOKO@1?42?4840?410008?45?41?44?41?41?4481?46?$AA@ 00474728     ctn_lib:srv1.obj
 0002:00001748       ??_C@_0BO@EBBH@1?42?4840?410008?45?41?44?41?41?4481?45?$AA@ 00474748     ctn_lib:srv1.obj
 0002:00001768       ??_C@_0BO@OLIA@1?42?4840?410008?45?41?44?41?41?4481?44?$AA@ 00474768     ctn_lib:srv1.obj
 0002:00001788       ??_C@_0BO@LOGF@1?42?4840?410008?45?41?44?41?41?4481?43?$AA@ 00474788     ctn_lib:srv1.obj
 0002:000017a8       ??_C@_0BO@BEPC@1?42?4840?410008?45?41?44?41?41?4481?42?$AA@ 004747a8     ctn_lib:srv1.obj
 0002:000017c8       ??_C@_0BO@OLEL@1?42?4840?410008?45?41?44?41?41?4481?41?$AA@ 004747c8     ctn_lib:srv1.obj
 0002:000017e8       ??_C@_0BM@BKOA@1?42?4840?410008?45?41?44?41?41?4131?$AA@ 004747e8     ctn_lib:srv1.obj
 0002:00001804       ??_C@_0BM@LAHH@1?42?4840?410008?45?41?44?41?41?4130?$AA@ 00474804     ctn_lib:srv1.obj
 0002:00001820       ??_C@_0BM@PCGF@1?42?4840?410008?45?41?44?41?41?4128?$AA@ 00474820     ctn_lib:srv1.obj
 0002:0000183c       ??_C@_0BO@EJO@1?42?4840?410008?45?41?44?41?41?4104?42?$AA@ 0047483c     ctn_lib:srv1.obj
 0002:0000185c       ??_C@_0BO@PLCH@1?42?4840?410008?45?41?44?41?41?4104?41?$AA@ 0047485c     ctn_lib:srv1.obj
 0002:0000187c       ??_C@_0BO@OOAP@1?42?4840?410008?45?41?44?41?41?488?469?$AA@ 0047487c     ctn_lib:srv1.obj
 0002:0000189c       ??_C@_0BO@EFMF@1?42?4840?410008?45?41?44?41?41?488?467?$AA@ 0047489c     ctn_lib:srv1.obj
 0002:000018bc       ??_C@_0BO@BAOL@1?42?4840?410008?45?41?44?41?41?488?465?$AA@ 004748bc     ctn_lib:srv1.obj
 0002:000018dc       ??_C@_0BO@NFPA@1?42?4840?410008?45?41?44?41?41?488?459?$AA@ 004748dc     ctn_lib:srv1.obj
 0002:000018fc       ??_C@_0BO@CLNP@1?42?4840?410008?45?41?44?41?41?488?450?$AA@ 004748fc     ctn_lib:srv1.obj
 0002:0000191c       ??_C@_0BO@DNHF@1?42?4840?410008?45?41?44?41?41?488?440?$AA@ 0047491c     ctn_lib:srv1.obj
 0002:0000193c       ??_C@_0BO@KDJJ@1?42?4840?410008?45?41?44?41?41?488?433?$AA@ 0047493c     ctn_lib:srv1.obj
 0002:0000195c       ??_C@_0BO@BPKE@1?42?4840?410008?45?41?44?41?41?488?422?$AA@ 0047495c     ctn_lib:srv1.obj
 0002:0000197c       ??_C@_0BO@NLOC@1?42?4840?410008?45?41?44?41?41?488?411?$AA@ 0047497c     ctn_lib:srv1.obj
 0002:0000199c       ??_C@_0BN@GHMB@1?42?4840?410008?45?41?44?41?41?479?41?$AA@ 0047499c     ctn_lib:srv1.obj
 0002:000019bc       ??_C@_0BN@GADC@1?42?4840?410008?45?41?44?41?41?478?46?$AA@ 004749bc     ctn_lib:srv1.obj
 0002:000019dc       ??_C@_0BN@JPIL@1?42?4840?410008?45?41?44?41?41?478?45?$AA@ 004749dc     ctn_lib:srv1.obj
 0002:000019fc       ??_C@_0BN@DFBM@1?42?4840?410008?45?41?44?41?41?478?44?$AA@ 004749fc     ctn_lib:srv1.obj
 0002:00001a1c       ??_C@_0BN@GAPJ@1?42?4840?410008?45?41?44?41?41?478?43?$AA@ 00474a1c     ctn_lib:srv1.obj
 0002:00001a3c       ??_C@_0BN@MKGO@1?42?4840?410008?45?41?44?41?41?478?42?$AA@ 00474a3c     ctn_lib:srv1.obj
 0002:00001a5c       ??_C@_0BN@DFNH@1?42?4840?410008?45?41?44?41?41?478?41?$AA@ 00474a5c     ctn_lib:srv1.obj
 0002:00001a7c       ??_C@_0CB@HGCC@1?42?4840?410008?45?41?44?41?41?477?41?45?44@ 00474a7c     ctn_lib:srv1.obj
 0002:00001aa0       ??_C@_0CB@CDMH@1?42?4840?410008?45?41?44?41?41?477?41?45?43@ 00474aa0     ctn_lib:srv1.obj
 0002:00001ac4       ??_C@_0CB@IJFA@1?42?4840?410008?45?41?44?41?41?477?41?45?42@ 00474ac4     ctn_lib:srv1.obj
 0002:00001ae8       ??_C@_0CB@HGOJ@1?42?4840?410008?45?41?44?41?41?477?41?45?41@ 00474ae8     ctn_lib:srv1.obj
 0002:00001b0c       ??_C@_0CB@CEPP@1?42?4840?410008?45?41?44?41?41?477?41?44?41@ 00474b0c     ctn_lib:srv1.obj
 0002:00001b30       ??_C@_0BP@BPAO@1?42?4840?410008?45?41?44?41?41?477?41?44?$AA@ 00474b30     ctn_lib:srv1.obj
 0002:00001b50       ??_C@_0BP@EKOL@1?42?4840?410008?45?41?44?41?41?477?41?43?$AA@ 00474b50     ctn_lib:srv1.obj
 0002:00001b70       ??_C@_0CB@MIII@1?42?4840?410008?45?41?44?41?41?477?41?42?41@ 00474b70     ctn_lib:srv1.obj
 0002:00001b94       ??_C@_0BP@OAHM@1?42?4840?410008?45?41?44?41?41?477?41?42?$AA@ 00474b94     ctn_lib:srv1.obj
 0002:00001bb4       ??_C@_0CB@DOLD@1?42?4840?410008?45?41?44?41?41?477?41?41?41@ 00474bb4     ctn_lib:srv1.obj
 0002:00001bd8       ??_C@_0BP@BPMF@1?42?4840?410008?45?41?44?41?41?477?41?41?$AA@ 00474bd8     ctn_lib:srv1.obj
 0002:00001bf8       ??_C@_0BL@CMPB@1?42?4840?410008?45?41?44?41?41?467?$AA@ 00474bf8     ctn_lib:srv1.obj
 0002:00001c14       ??_C@_0BN@MGBL@1?42?4840?410008?45?41?44?41?41?466?45?$AA@ 00474c14     ctn_lib:srv1.obj
 0002:00001c34       ??_C@_0BN@GMIM@1?42?4840?410008?45?41?44?41?41?466?44?$AA@ 00474c34     ctn_lib:srv1.obj
 0002:00001c54       ??_C@_0BN@DJGJ@1?42?4840?410008?45?41?44?41?41?466?43?$AA@ 00474c54     ctn_lib:srv1.obj
 0002:00001c74       ??_C@_0BN@JDPO@1?42?4840?410008?45?41?44?41?41?466?42?$AA@ 00474c74     ctn_lib:srv1.obj
 0002:00001c94       ??_C@_0BN@GMEH@1?42?4840?410008?45?41?44?41?41?466?41?$AA@ 00474c94     ctn_lib:srv1.obj
 0002:00001cb4       ??_C@_0BL@IGGG@1?42?4840?410008?45?41?44?41?41?466?$AA@ 00474cb4     ctn_lib:srv1.obj
 0002:00001cd0       ??_C@_0BL@CDLO@1?42?4840?410008?45?41?44?41?41?420?$AA@ 00474cd0     ctn_lib:srv1.obj
 0002:00001cec       ??_C@_0BP@LHLO@1?42?4840?410008?45?41?44?41?41?413?41?43?$AA@ 00474cec     ctn_lib:srv1.obj
 0002:00001d0c       ??_C@_0BP@BNCJ@1?42?4840?410008?45?41?44?41?41?413?41?42?$AA@ 00474d0c     ctn_lib:srv1.obj
 0002:00001d2c       ??_C@_0BP@OCJA@1?42?4840?410008?45?41?44?41?41?413?41?41?$AA@ 00474d2c     ctn_lib:srv1.obj
 0002:00001d4c       ??_C@_0BP@LEIO@1?42?4840?410008?45?41?44?41?41?412?42?41?$AA@ 00474d4c     ctn_lib:srv1.obj
 0002:00001d6c       ??_C@_0BN@CBBK@1?42?4840?410008?45?41?44?41?41?412?42?$AA@ 00474d6c     ctn_lib:srv1.obj
 0002:00001d8c       ??_C@_0BP@ECLF@1?42?4840?410008?45?41?44?41?41?412?41?41?$AA@ 00474d8c     ctn_lib:srv1.obj
 0002:00001dac       ??_C@_0BN@NOKD@1?42?4840?410008?45?41?44?41?41?412?41?$AA@ 00474dac     ctn_lib:srv1.obj
 0002:00001dcc       ??_C@_0BN@ICME@1?42?4840?410008?45?41?44?41?41?411?45?$AA@ 00474dcc     ctn_lib:srv1.obj
 0002:00001dec       ??_C@_0BN@CIFD@1?42?4840?410008?45?41?44?41?41?411?44?$AA@ 00474dec     ctn_lib:srv1.obj
 0002:00001e0c       ??_C@_0BN@HNLG@1?42?4840?410008?45?41?44?41?41?411?43?$AA@ 00474e0c     ctn_lib:srv1.obj
 0002:00001e2c       ??_C@_0BN@NHCB@1?42?4840?410008?45?41?44?41?41?411?42?$AA@ 00474e2c     ctn_lib:srv1.obj
 0002:00001e4c       ??_C@_0BN@CIJI@1?42?4840?410008?45?41?44?41?41?411?41?$AA@ 00474e4c     ctn_lib:srv1.obj
 0002:00001e6c       ??_C@_0BO@POHN@1?42?4840?410008?45?41?44?41?41?49?46?41?$AA@ 00474e6c     ctn_lib:srv1.obj
 0002:00001e8c       ??_C@_0BO@IEG@1?42?4840?410008?45?41?44?41?41?49?45?41?$AA@ 00474e8c     ctn_lib:srv1.obj
 0002:00001eac       ??_C@_0BO@KFOJ@1?42?4840?410008?45?41?44?41?41?49?44?42?$AA@ 00474eac     ctn_lib:srv1.obj
 0002:00001ecc       ??_C@_0BO@FKFA@1?42?4840?410008?45?41?44?41?41?49?44?41?$AA@ 00474ecc     ctn_lib:srv1.obj
 0002:00001eec       ??_C@_0BO@OEDB@1?42?4840?410008?45?41?44?41?41?49?43?41?$AA@ 00474eec     ctn_lib:srv1.obj
 0002:00001f0c       ??_C@_0BO@LGCH@1?42?4840?410008?45?41?44?41?41?49?42?41?$AA@ 00474f0c     ctn_lib:srv1.obj
 0002:00001f2c       ??_C@_0BO@BFDC@1?42?4840?410008?45?41?44?41?41?49?41?43?$AA@ 00474f2c     ctn_lib:srv1.obj
 0002:00001f4c       ??_C@_0BO@LPKF@1?42?4840?410008?45?41?44?41?41?49?41?42?$AA@ 00474f4c     ctn_lib:srv1.obj
 0002:00001f6c       ??_C@_0BO@EABM@1?42?4840?410008?45?41?44?41?41?49?41?41?$AA@ 00474f6c     ctn_lib:srv1.obj
 0002:00001f8c       ??_C@_0BM@GFKB@1?42?4840?410008?45?41?44?41?41?47?44?$AA@ 00474f8c     ctn_lib:srv1.obj
 0002:00001fa8       ??_C@_0BM@DAEE@1?42?4840?410008?45?41?44?41?41?47?43?$AA@ 00474fa8     ctn_lib:srv1.obj
 0002:00001fc4       ??_C@_0BM@JKND@1?42?4840?410008?45?41?44?41?41?47?42?$AA@ 00474fc4     ctn_lib:srv1.obj
 0002:00001fe0       ??_C@_0BM@GFGK@1?42?4840?410008?45?41?44?41?41?47?41?$AA@ 00474fe0     ctn_lib:srv1.obj
 0002:00001ffc       ??_C@_0BK@COHJ@1?42?4840?410008?45?41?44?41?41?47?$AA@ 00474ffc     ctn_lib:srv1.obj
 0002:00002018       ??_C@_0BM@MIMF@1?42?4840?410008?45?41?44?41?41?46?42?$AA@ 00475018     ctn_lib:srv1.obj
 0002:00002034       ??_C@_0BM@DHHM@1?42?4840?410008?45?41?44?41?41?46?41?$AA@ 00475034     ctn_lib:srv1.obj
 0002:00002050       ??_C@_0BM@MGHP@1?42?4840?410008?45?41?44?41?41?44?43?$AA@ 00475050     ctn_lib:srv1.obj
 0002:0000206c       ??_C@_0BM@GMOI@1?42?4840?410008?45?41?44?41?41?44?42?$AA@ 0047506c     ctn_lib:srv1.obj
 0002:00002088       ??_C@_0BM@JDFB@1?42?4840?410008?45?41?44?41?41?44?41?$AA@ 00475088     ctn_lib:srv1.obj
 0002:000020a4       ??_C@_0BK@NBMA@1?42?4840?410008?45?41?44?41?41?44?$AA@ 004750a4     ctn_lib:srv1.obj
 0002:000020c0       ??_C@_0BM@CNDA@1?42?4840?410008?45?41?44?41?41?43?41?$AA@ 004750c0     ctn_lib:srv1.obj
 0002:000020dc       ??_C@_0BM@HPCG@1?42?4840?410008?45?41?44?41?41?42?41?$AA@ 004750dc     ctn_lib:srv1.obj
 0002:000020f8       ??_C@_0BK@COLC@1?42?4840?410008?45?41?44?41?41?42?$AA@ 004750f8     ctn_lib:srv1.obj
 0002:00002114       ??_C@_0BO@OFBL@1?42?4840?410008?45?41?44?41?41?41?43?41?$AA@ 00475114     ctn_lib:srv1.obj
 0002:00002134       ??_C@_0BM@NMDD@1?42?4840?410008?45?41?44?41?41?41?43?$AA@ 00475134     ctn_lib:srv1.obj
 0002:00002150       ??_C@_0BO@LHAN@1?42?4840?410008?45?41?44?41?41?41?42?41?$AA@ 00475150     ctn_lib:srv1.obj
 0002:00002170       ??_C@_0BM@HGKE@1?42?4840?410008?45?41?44?41?41?41?42?$AA@ 00475170     ctn_lib:srv1.obj
 0002:0000218c       ??_C@_0BO@EBDG@1?42?4840?410008?45?41?44?41?41?41?41?41?$AA@ 0047518c     ctn_lib:srv1.obj
 0002:000021ac       ??_C@_0BM@IJBN@1?42?4840?410008?45?41?44?41?41?41?41?$AA@ 004751ac     ctn_lib:srv1.obj
 0002:000021c8       ??_C@_0BK@NBAL@1?42?4840?410008?45?41?44?41?41?41?$AA@ 004751c8     ctn_lib:srv1.obj
 0002:000021e4       ??_C@_0BC@BLOI@1?42?4840?410008?41?41?$AA@ 004751e4     ctn_lib:srv1.obj
 0002:000021f8       ??_C@_0N@FDEL@PROPOSE?1XFER?$AA@ 004751f8     ctn_lib:srv1.obj
 0002:00002208       ??_C@_0BI@JKBE@SRV_RequestServiceClass?$AA@ 00475208     ctn_lib:srv1.obj
 0002:00002220       ??_C@_01FBAH@1?$AA@        00475220     ctn_lib:srv1.obj
 0002:00002224       ??_C@_0BM@MOOE@PROPOSE?1SINGLE_PRESENTATION?$AA@ 00475224     ctn_lib:srv1.obj
 0002:00002240       ??_C@_0BF@HIBJ@SRV_RegisterSOPClass?$AA@ 00475240     ctn_lib:srv1.obj
 0002:00002258       ??_C@_0BJ@ILLN@SRV_RegisterSOPClassXfer?$AA@ 00475258     ctn_lib:srv1.obj
 0002:00002274       ??_C@_0BF@MKJN@PROPOSE?1XFER?1STORAGE?$AA@ 00475274     ctn_lib:srv1.obj
 0002:0000228c       ??_C@_0BM@JLBD@SRV_ProposeSOPClassWithXfer?$AA@ 0047528c     ctn_lib:srv1.obj
 0002:000022a8       ??_C@_0DL@DIDO@SRV?5Presentation?5Context?5rejecte@ 004752a8     ctn_lib:srv1.obj
 0002:000022e4       ??_C@_0DM@OCKH@SRV?5No?5transfer?5syntaxes?5support@ 004752e4     ctn_lib:srv1.obj
 0002:00002320       ??_C@_0M@COFI@ACCEPT?1XFER?$AA@ 00475320     ctn_lib:srv1.obj
 0002:0000232c       ??_C@_0BH@BGAL@1?42?4840?410008?41?42?44?490?$AA@ 0047532c     ctn_lib:srv1.obj
 0002:00002344       ??_C@_0BH@NEKA@1?42?4840?410008?41?42?44?470?$AA@ 00475344     ctn_lib:srv1.obj
 0002:0000235c       ??_C@_0BH@FIDO@1?42?4840?410008?41?42?41?499?$AA@ 0047535c     ctn_lib:srv1.obj
 0002:00002374       ??_C@_0BH@FDGC@1?42?4840?410008?41?42?44?451?$AA@ 00475374     ctn_lib:srv1.obj
 0002:0000238c       ??_C@_0BH@PJPF@1?42?4840?410008?41?42?44?450?$AA@ 0047538c     ctn_lib:srv1.obj
 0002:000023a4       ??_C@_0BH@DPFH@SRV_AcceptServiceClass?$AA@ 004753a4     ctn_lib:srv1.obj
 0002:000023bc       ??_C@_0CC@JLBJ@SRV?5Supported?5transfer?5syntax?3?5?$CF@ 004753bc     ctn_lib:srv1.obj
 0002:000023e0       ??_C@_0CC@GOCC@SRV?5REQUESTED?5transfer?5syntax?3?5?$CF@ 004753e0     ctn_lib:srv1.obj
 0002:00002404       ??_C@_0BD@PFEH@SRV_AcceptSOPClass?$AA@ 00475404     ctn_lib:srv1.obj
 0002:00002418       ??_C@_0BE@OAKA@ACCEPT?1XFER?1STORAGE?$AA@ 00475418     ctn_lib:srv1.obj
 0002:0000242c       ??_C@_0BH@KMPP@SRV_RejectServiceClass?$AA@ 0047542c     ctn_lib:srv1.obj
 0002:00002444       ??_C@_0DE@FPLN@?5SRV_MessageIDOut?5unable?5to?5rele@ 00475444     ctn_lib:srv1.obj
 0002:00002478       ??_C@_0DD@ICJM@?5SRV_MessageIDOut?5unable?5to?5obta@ 00475478     ctn_lib:srv1.obj
 0002:000024ac       ??_C@_0L@BGM@Byte?5order?$AA@ 004754ac     ctn_lib:dcm.obj
 0002:000024b8       ??_C@_0N@JCPN@DCM_OpenFile?$AA@ 004754b8     ctn_lib:dcm.obj
 0002:000024c8       ??_C@_0P@EFJF@DCM_ReadStream?$AA@ 004754c8     ctn_lib:dcm.obj
 0002:000024d8       ??_C@_0BH@CPOC@KEY?5ACR?5NEMA?5V3?5OBJECT?$AA@ 004754d8     ctn_lib:dcm.obj
 0002:000024f0       ??_C@_0BB@GBFK@DCM_CreateObject?$AA@ 004754f0     ctn_lib:dcm.obj
 0002:00002504       ??_C@_0BL@GAKE@DCM_CloseObject?3?5free?5?$CF8x?6?$AA@ 00475504     ctn_lib:dcm.obj
 0002:00002520       ??_C@_0BL@JKIH@Fragment?5List?5Address?3?5?$CFx?6?$AA@ 00475520     ctn_lib:dcm.obj
 0002:0000253c       ??_C@_0BL@JFM@Sequence?5List?5Address?3?5?$CFx?6?$AA@ 0047553c     ctn_lib:dcm.obj
 0002:00002558       ??_C@_0BP@EFCO@DCM_CloseObject?3?5Element?5?$CF08x?6?$AA@ 00475558     ctn_lib:dcm.obj
 0002:00002578       ??_C@_0BN@KOCH@DCM_CloseObject?3?5group?5?$CF04x?6?$AA@ 00475578     ctn_lib:dcm.obj
 0002:00002598       ??_C@_0CP@OOOG@DCM_CloseObject?3?5Legal?5object?5an@ 00475598     ctn_lib:dcm.obj
 0002:000025c8       ??_C@_0BA@CPMF@DCM_CloseObject?$AA@ 004755c8     ctn_lib:dcm.obj
 0002:000025d8       ??_C@_0BK@LMCG@Starting?5DCM_CloseObject?6?$AA@ 004755d8     ctn_lib:dcm.obj
 0002:000025f4       ??_C@_0P@HAEM@DCM_AddElement?$AA@ 004755f4     ctn_lib:dcm.obj
 0002:00002604       ??_C@_0BH@ILEL@DCM_AddSequenceElement?$AA@ 00475604     ctn_lib:dcm.obj
 0002:0000261c       ??_C@_0BC@NPEK@DCM_RemoveElement?$AA@ 0047561c     ctn_lib:dcm.obj
 0002:00002630       ??_C@_0BE@COBG@DCM_GetElementValue?$AA@ 00475630     ctn_lib:dcm.obj
 0002:00002644       ??_C@_0BA@OIOG@?$DMUnimplemented?$DO?$AA@ 00475644     ctn_lib:dcm.obj
 0002:00002654       ??_C@_0BJ@GECL@DCM_GetElementValueValue?$AA@ 00475654     ctn_lib:dcm.obj
 0002:00002670       ??_C@_0BK@GIMK@DCM_GetElementValueLength?$AA@ 00475670     ctn_lib:dcm.obj
 0002:0000268c       ??_C@_0BK@FOHC@DCM_GetElementValueOffset?$AA@ 0047568c     ctn_lib:dcm.obj
 0002:000026a8       ??_C@_0BD@GJGL@DCM_GetElementSize?$AA@ 004756a8     ctn_lib:dcm.obj
 0002:000026bc       ??_C@_0BE@DPNI@DCM_ScanParseObject?$AA@ 004756bc     ctn_lib:dcm.obj
 0002:000026d0       ??_C@_0BB@HOHC@DCM_ImportStream?$AA@ 004756d0     ctn_lib:dcm.obj
 0002:000026e4       ??_C@_0BB@EOMA@DCM_ExportStream?$AA@ 004756e4     ctn_lib:dcm.obj
 0002:000026f8       ??_C@_0BC@HDKE@DCM_GetObjectSize?$AA@ 004756f8     ctn_lib:dcm.obj
 0002:0000270c       ??_C@_0BN@GMBM@DCM?5Dump?5Elements?5Complete?6?6?$AA@ 0047570c     ctn_lib:dcm.obj
 0002:0000272c       ??_C@_0CC@CEJN@Some?5unimplemented?5logic?5if?5here@ 0047572c     ctn_lib:dcm.obj
 0002:00002750       ??_C@_0BM@FALK@DCM?5Dump?5Sequence?5Complete?6?$AA@ 00475750     ctn_lib:dcm.obj
 0002:0000276c       ??_C@_0BD@MFGN@DCM?5Dump?5Sequence?6?$AA@ 0047576c     ctn_lib:dcm.obj
 0002:00002780       ??_C@_09BMFD@SEQUENCE?6?$AA@ 00475780     ctn_lib:dcm.obj
 0002:0000278c       ??_C@_07CGGA@?$CF4x?5?$CFd?6?$AA@ 0047578c     ctn_lib:dcm.obj
 0002:00002794       ??_C@_07NNOB@?$CF8x?5?$CFd?6?$AA@ 00475794     ctn_lib:dcm.obj
 0002:0000279c       ??_C@_0P@NIKG@Unimplemented?6?$AA@ 0047579c     ctn_lib:dcm.obj
 0002:000027ac       ??_C@_04OFJE@?$CFf?5?6?$AA@ 004757ac     ctn_lib:dcm.obj
 0002:000027b4       ??_C@_0O@PBEK@Data?5on?5disk?6?$AA@ 004757b4     ctn_lib:dcm.obj
 0002:000027c4       ??_C@_08NKNL@?1?1?$CF31s?1?1?$AA@ 004757c4     ctn_lib:dcm.obj
 0002:000027d0       ??_C@_0P@HGP@?$CF04x?5?$CF04x?5?$CF8d?5?$AA@ 004757d0     ctn_lib:dcm.obj
 0002:000027e0       ??_C@_0BK@CBDG@Group?3?5?$CF04x?0?5Length?3?5?$CF8d?6?$AA@ 004757e0     ctn_lib:dcm.obj
 0002:000027fc       ??_C@_0BC@NLFN@Object?5size?3?5?$CFld?6?$AA@ 004757fc     ctn_lib:dcm.obj
 0002:00002810       ??_C@_0BO@JHDH@Object?5type?3?5Unknown?5?$CIerror?$CJ?6?$AA@ 00475810     ctn_lib:dcm.obj
 0002:00002830       ??_C@_0BL@DPDE@Object?5type?3?5ELEMENT?5LIST?6?$AA@ 00475830     ctn_lib:dcm.obj
 0002:0000284c       ??_C@_0BE@LPAL@Object?5type?3?5IMAGE?6?$AA@ 0047584c     ctn_lib:dcm.obj
 0002:00002860       ??_C@_0BG@ICJK@Object?5type?3?5COMMAND?6?$AA@ 00475860     ctn_lib:dcm.obj
 0002:00002878       ??_C@_0BG@INBK@Object?5type?3?5UNKNOWN?6?$AA@ 00475878     ctn_lib:dcm.obj
 0002:00002890       ??_C@_0BE@EPND@?6DCM?5Dump?5Elements?6?$AA@ 00475890     ctn_lib:dcm.obj
 0002:000028a4       ??_C@_0BB@EDLJ@DCM_DumpElements?$AA@ 004758a4     ctn_lib:dcm.obj
 0002:000028b8       ??_C@_0BP@EHBG@?$CFsDCM?5Dump?5Elements?5Complete?6?6?$AA@ 004758b8     ctn_lib:dcm.obj
 0002:000028d8       ??_C@_0BO@FKMK@?$CFsDCM?5Dump?5Sequence?5Complete?6?$AA@ 004758d8     ctn_lib:dcm.obj
 0002:000028f8       ??_C@_0BF@FCAL@?$CFsDCM?5Dump?5Sequence?6?$AA@ 004758f8     ctn_lib:dcm.obj
 0002:00002910       ??_C@_0BB@IAI@?$CFs?$CF04x?5?$CF04x?5?$CF8d?5?$AA@ 00475910     ctn_lib:dcm.obj
 0002:00002924       ??_C@_0BM@JAKJ@?$CFsGroup?3?5?$CF04x?0?5Length?3?5?$CF8d?6?$AA@ 00475924     ctn_lib:dcm.obj
 0002:00002940       ??_C@_0BE@LNHD@?$CFsObject?5size?3?5?$CFld?6?$AA@ 00475940     ctn_lib:dcm.obj
 0002:00002954       ??_C@_0CA@PBM@?$CFsObject?5type?3?5Unknown?5?$CIerror?$CJ?6?$AA@ 00475954     ctn_lib:dcm.obj
 0002:00002974       ??_C@_0BN@EPIF@?$CFsObject?5type?3?5ELEMENT?5LIST?6?$AA@ 00475974     ctn_lib:dcm.obj
 0002:00002994       ??_C@_0BG@BNJM@?$CFsObject?5type?3?5IMAGE?6?$AA@ 00475994     ctn_lib:dcm.obj
 0002:000029ac       ??_C@_0BI@KFNE@?$CFsObject?5type?3?5COMMAND?6?$AA@ 004759ac     ctn_lib:dcm.obj
 0002:000029c4       ??_C@_0BI@KKFE@?$CFsObject?5type?3?5UNKNOWN?6?$AA@ 004759c4     ctn_lib:dcm.obj
 0002:000029dc       ??_C@_0BG@HGKJ@?6?$CFsDCM?5Dump?5Elements?6?$AA@ 004759dc     ctn_lib:dcm.obj
 0002:000029f4       ??_C@_0O@GEEE@DCM_WriteFile?$AA@ 004759f4     ctn_lib:dcm.obj
 0002:00002a04       ??_C@_0BC@BJKC@DCM_ModifyElement?$AA@ 00475a04     ctn_lib:dcm.obj
 0002:00002a18       ??_C@_0BA@ILNL@DCM_ParseObject?$AA@ 00475a18     ctn_lib:dcm.obj
 0002:00002a28       ??_C@_0BA@ILEJ@DCM_RemoveGroup?$AA@ 00475a28     ctn_lib:dcm.obj
 0002:00002a38       ??_C@_0BD@BHCO@DCM_StripOddGroups?$AA@ 00475a38     ctn_lib:dcm.obj
 0002:00002a4c       ??_C@_0BD@LLBC@DCM_GetSequenceTag?$AA@ 00475a4c     ctn_lib:dcm.obj
 0002:00002a60       ??_C@_0BE@NNLA@DCM_GetSequenceList?$AA@ 00475a60     ctn_lib:dcm.obj
 0002:00002a74       ??_C@_08MNMF@sequence?$AA@ 00475a74     ctn_lib:dcm.obj
 0002:00002a80       ??_C@_0BH@PEDK@DCM_GetElementSequence?$AA@ 00475a80     ctn_lib:dcm.obj
 0002:00002a98       ??_C@_0BH@BPHI@DCM_GetSequenceElement?$AA@ 00475a98     ctn_lib:dcm.obj
 0002:00002ab0       ??_C@_06EMNG@string?$AA@   00475ab0     ctn_lib:dcm.obj
 0002:00002ab8       ??_C@_0BI@HBDG@DCM_GetElementValueList?$AA@ 00475ab8     ctn_lib:dcm.obj
 0002:00002ad0       ??_C@_0P@BAGA@DCM_GetElement?$AA@ 00475ad0     ctn_lib:dcm.obj
 0002:00002ae0       ??_C@_0BG@MAHI@DCM_ComputeExportSize?$AA@ 00475ae0     ctn_lib:dcm.obj
 0002:00002af8       ??_C@_0BG@EPHG@DCM_CompareAttributes?$AA@ 00475af8     ctn_lib:dcm.obj
 0002:00002b10       ??_C@_0BA@NJHP@findCreateGroup?$AA@ 00475b10     ctn_lib:dcm.obj
 0002:00002b20       ??_C@_0P@DPPI@newElementItem?$AA@ 00475b20     ctn_lib:dcm.obj
 0002:00002b30       ??_C@_04EIMO@?$CF8x?6?$AA@ 00475b30     ctn_lib:dcm.obj
 0002:00002b38       ??_C@_0CE@FKKE@newElementItem?3?5CTN_MALLOC?5?$CF8d?5?$CF@ 00475b38     ctn_lib:dcm.obj
 0002:00002b5c       ??_C@_0BB@KLEH@insertNewElement?$AA@ 00475b5c     ctn_lib:dcm.obj
 0002:00002b70       ??_C@_09JFMF@writeFile?$AA@ 00475b70     ctn_lib:dcm.obj
 0002:00002b7c       ??_C@_0BD@MMME@Export?3?5?$CI?$CF08x?$CJ?5?$CFd?6?$AA@ 00475b7c     ctn_lib:dcm.obj
 0002:00002b90       ??_C@_0N@KMMJ@exportStream?$AA@ 00475b90     ctn_lib:dcm.obj
 0002:00002ba0       ??_C@_04OGCN@DICM?$AA@     00475ba0     ctn_lib:dcm.obj
 0002:00002ba8       ??_C@_0P@HLKK@exportPreamble?$AA@ 00475ba8     ctn_lib:dcm.obj
 0002:00002bb8       ??_C@_02KKOC@xx?$AA@       00475bb8     ctn_lib:dcm.obj
 0002:00002bbc       ??_C@_0L@HHEM@exportData?$AA@ 00475bbc     ctn_lib:dcm.obj
 0002:00002bc8       ??_C@_0BN@FPEJ@byte?5count?3?5?$CFd?5?$CFd?0?5errno?3?5?$CFd?$AA@ 00475bc8     ctn_lib:dcm.obj
 0002:00002be8       ??_C@_0N@KKDM@exportPixels?$AA@ 00475be8     ctn_lib:dcm.obj
 0002:00002bf8       ??_C@_0BE@BEMM@Fragment?5size?3?5?$CF6d?6?$AA@ 00475bf8     ctn_lib:dcm.obj
 0002:00002c0c       ??_C@_0BJ@JBAH@exportEncapsulatedPixels?$AA@ 00475c0c     ctn_lib:dcm.obj
 0002:00002c28       ??_C@_0ED@GFJA@DCM?5Exporting?5pixels?5but?5did?5not@ 00475c28     ctn_lib:dcm.obj
 0002:00002c6c       ??_C@_0BJ@ELBA@exportEncapsualtedPixels?$AA@ 00475c6c     ctn_lib:dcm.obj
 0002:00002c88       ??_C@_0BD@GNID@extractFileOptions?$AA@ 00475c88     ctn_lib:dcm.obj
 0002:00002c9c       ??_C@_08NCEN@readFile?$AA@ 00475c9c     ctn_lib:dcm.obj
 0002:00002ca8       ??_C@_0N@LNOK@readPreamble?$AA@ 00475ca8     ctn_lib:dcm.obj
 0002:00002cb8       ??_C@_0L@NONN@?$CF04x?5?$CF04x?5?$AA@ 00475cb8     ctn_lib:dcm.obj
 0002:00002cc4       ??_C@_0BB@PAFN@readGroupElement?$AA@ 00475cc4     ctn_lib:dcm.obj
 0002:00002cd8       ??_C@_0BA@GOGL@Bytes?5read?3?5?$CFd?6?$AA@ 00475cd8     ctn_lib:dcm.obj
 0002:00002ce8       ??_C@_0BB@DKBM@?$CF2s?5?$CF6d?5?$CF06x?5?$CFs?6?$AA@ 00475ce8     ctn_lib:dcm.obj
 0002:00002cfc       ??_C@_0N@CNLN@readVRLength?$AA@ 00475cfc     ctn_lib:dcm.obj
 0002:00002d0c       ??_C@_0CA@OAKG@Sequence?5item?3?5?$CF4x?5?$CF4x?5?$CFd?5?$CI?$CFx?$CJ?6?$AA@ 00475d0c     ctn_lib:dcm.obj
 0002:00002d2c       ??_C@_0BI@NEJG@Sequence?5Length?3?5?$CFd?5?$CFx?6?$AA@ 00475d2c     ctn_lib:dcm.obj
 0002:00002d44       ??_C@_0N@ONBH@readSequence?$AA@ 00475d44     ctn_lib:dcm.obj
 0002:00002d54       ??_C@_0BD@DLPA@Scanned?5Bytes?3?5?$CFd?6?$AA@ 00475d54     ctn_lib:dcm.obj
 0002:00002d68       ??_C@_0BE@PCMO@checkAttributeOrder?$AA@ 00475d68     ctn_lib:dcm.obj
 0002:00002d7c       ??_C@_0BA@KNHP@handleGroupItem?$AA@ 00475d7c     ctn_lib:dcm.obj
 0002:00002d8c       ??_C@_02IPK@SS?$AA@        00475d8c     ctn_lib:dcm.obj
 0002:00002d90       ??_C@_0BI@EODL@copyData?5?$CIDCM?5internal?$CJ?$AA@ 00475d90     ctn_lib:dcm.obj
 0002:00002da8       ??_C@_0BF@CHBL@?$CIDCM?$CJreadLengthToEnd?$AA@ 00475da8     ctn_lib:dcm.obj
 0002:00002dc0       ??_C@_01BJG@?6?$AA@        00475dc0     ctn_lib:dcm.obj
 0002:00002dc4       ??_C@_04LADL@?$CF7d?5?$AA@ 00475dc4     ctn_lib:dcm.obj
 0002:00002dcc       ??_C@_05OOAB@?$CF02x?5?$AA@ 00475dcc     ctn_lib:dcm.obj
 0002:00002dd4       ??_C@_0BE@EKCL@DCM_GetEncodedValue?$AA@ 00475dd4     ctn_lib:dcm.obj
 0002:00002de8       ??_C@_0BH@LDCC@DCM_GetCompressedValue?$AA@ 00475de8     ctn_lib:dcm.obj
 0002:00002e00       ??_C@_0CK@KOIE@size?3?5?$CF6d?5offset?3?5?$CF6d?0?5pixel?5off@ 00475e00     ctn_lib:dcm.obj
 0002:00002e2c       ??_C@_0BG@GFMC@DCM_PrintSequenceList?$AA@ 00475e2c     ctn_lib:dcm.obj
 0002:00002e44       ??_C@_0P@FOD@DCM_CopyObject?$AA@ 00475e44     ctn_lib:dcm.obj
 0002:00002e54       ??_C@_0BA@KKLD@DCM_MergeObject?$AA@ 00475e54     ctn_lib:dcm.obj
 0002:00002e64       ??_C@_0BE@KEOM@DCM_GetFirstElement?$AA@ 00475e64     ctn_lib:dcm.obj
 0002:00002e78       ??_C@_0BD@DPNN@DCM_GetNextElement?$AA@ 00475e78     ctn_lib:dcm.obj
 0002:00002e8c       ??_C@_0BA@FIND@DCM_AddFragment?$AA@ 00475e8c     ctn_lib:dcm.obj
 0002:00002e9c       ??_C@_0BG@MCFD@insertThisElementItem?$AA@ 00475e9c     ctn_lib:dcm.obj
 0002:00002eb4       ??_C@_05NFLK@EVRBE?$AA@    00475eb4     ctn_lib:uid.obj
 0002:00002ebc       ??_C@_05BHBB@EVRLE?$AA@    00475ebc     ctn_lib:uid.obj
 0002:00002ec4       ??_C@_05JGKO@IVRLE?$AA@    00475ec4     ctn_lib:uid.obj
 0002:00002ecc       ??_C@_0BJ@BHAG@STORAGECOMMITTRANSACTION?$AA@ 00475ecc     ctn_lib:uid.obj
 0002:00002ee8       ??_C@_0P@PKPA@STUDYCOMPONENT?$AA@ 00475ee8     ctn_lib:uid.obj
 0002:00002ef8       ??_C@_06EOCN@SERIAL?$AA@   00475ef8     ctn_lib:uid.obj
 0002:00002f00       ??_C@_06LKHN@DEVICE?$AA@   00475f00     ctn_lib:uid.obj
 0002:00002f08       ??_C@_07PHK@PRINTER?$AA@   00475f08     ctn_lib:uid.obj
 0002:00002f10       ??_C@_0P@JCKJ@INTERPRETATION?$AA@ 00475f10     ctn_lib:uid.obj
 0002:00002f20       ??_C@_07NEAK@RESULTS?$AA@  00475f20     ctn_lib:uid.obj
 0002:00002f28       ??_C@_05NPBD@IMAGE?$AA@    00475f28     ctn_lib:uid.obj
 0002:00002f30       ??_C@_06LMKK@SERIES?$AA@   00475f30     ctn_lib:uid.obj
 0002:00002f38       ??_C@_05MDJO@STUDY?$AA@    00475f38     ctn_lib:uid.obj
 0002:00002f40       ??_C@_05GNNF@VISIT?$AA@    00475f40     ctn_lib:uid.obj
 0002:00002f48       ??_C@_07DAEM@PATIENT?$AA@  00475f48     ctn_lib:uid.obj
 0002:00002f50       ??_C@_0N@ODAI@?$CFs?4?$CF?9ld?4?$CF?9ld?$AA@ 00475f50     ctn_lib:uid.obj
 0002:00002f60       ??_C@_0BG@EEPF@?$CFs?4?$CF?9ld?4?$CF?9ld?4?$CF?9d?4?$CF?9ld?$AA@ 00475f60     ctn_lib:uid.obj
 0002:00002f78       ??_C@_0L@FDKH@UID_Lookup?$AA@ 00475f78     ctn_lib:uid.obj
 0002:00002f84       ??_C@_04MHIC@NONE?$AA@     00475f84     ctn_lib:uid.obj
 0002:00002f8c       ??_C@_0O@BBK@UID?5Not?5Found?$AA@ 00475f8c     ctn_lib:uid.obj
 0002:00002f9c       ??_C@_06KHEO@?$CFs?5?$CFld?$AA@ 00475f9c     ctn_lib:uid.obj
 0002:00002fa4       ??_C@_05JKGE@?$CFs?5?$CFs?$AA@ 00475fa4     ctn_lib:uid.obj
 0002:00002fac       ??_C@_04DIDG@ROOT?$AA@     00475fac     ctn_lib:uid.obj
 0002:00002fb4       ??_C@_02DILL@?$CFs?$AA@    00475fb4     ctn_lib:uid.obj
 0002:00002fb8       ??_C@_08OCND@?$CFs?5?$CF20d?6?$AA@ 00475fb8     ctn_lib:uid.obj
 0002:00002fc4       ??_C@_08HKCM@ROOT?5?$CFs?6?$AA@ 00475fc4     ctn_lib:uid.obj
 0002:00002fd0       ??_C@_01LLF@w?$AA@         00475fd0     ctn_lib:uid.obj
 0002:00002fd4       ??_C@_07CNKI@UIDFILE?$AA@  00475fd4     ctn_lib:uid.obj
 0002:00002fdc       ??_C@_0BM@BJKI@1?42?4840?410008?45?41?44?41?41?49?41?$AA@ 00475fdc     ctn_lib:uid.obj
 0002:00002ff8       ??_C@_0DF@KLPF@COND_PushCondition?5unable?5to?5rel@ 00475ff8     ctn_lib:condition.obj
 0002:00003030       ??_C@_0BK@CCEL@CONDITION?5Stack?5overflow?6?$AA@ 00476030     ctn_lib:condition.obj
 0002:0000304c       ??_C@_0CL@EBLK@COND_PushCondition?5unable?5to?5obt@ 0047604c     ctn_lib:condition.obj
 0002:00003078       ??_C@_0CL@PLAA@NULL?5Control?5string?5passedto?5Pus@ 00476078     ctn_lib:condition.obj
 0002:000030a4       ??_C@_0DJ@ICAK@COND_ExtractConditions?5unable?5to@ 004760a4     ctn_lib:condition.obj
 0002:000030e0       ??_C@_0DI@DFHH@COND_ExtractConditions?5unable?5to@ 004760e0     ctn_lib:condition.obj
 0002:00003118       ??_C@_0DE@FDHH@COND_TopCondition?5unable?5to?5rele@ 00476118     ctn_lib:condition.obj
 0002:0000314c       ??_C@_0DD@EIBO@COND_TopCondition?5unable?5to?5obta@ 0047614c     ctn_lib:condition.obj
 0002:00003180       ??_C@_0DE@KMGD@COND_PopCondition?5unable?5to?5rele@ 00476180     ctn_lib:condition.obj
 0002:000031b4       ??_C@_0DD@FMDB@COND_PopCondition?5unable?5to?5obta@ 004761b4     ctn_lib:condition.obj
 0002:000031e8       ??_C@_0DJ@HMEE@COND_EstablishCallback?5unable?5to@ 004761e8     ctn_lib:condition.obj
 0002:00003224       ??_C@_0DI@HLAG@COND_EstablishCallback?5unable?5to@ 00476224     ctn_lib:condition.obj
 0002:0000325c       ??_C@_0CN@IMBC@COND_DumpConditions?5unable?5to?5re@ 0047625c     ctn_lib:condition.obj
 0002:0000328c       ??_C@_0CM@IMMC@COND_DumpConditions?5unable?5to?5ob@ 0047628c     ctn_lib:condition.obj
 0002:000032b8       ??_C@_07NGBN@?$CF8x?5?$CFs?6?$AA@ 004762b8     ctn_lib:condition.obj
 0002:000032c0       ??_C@_0DA@CMGM@COND_CopyText?5unable?5to?5release?5@ 004762c0     ctn_lib:condition.obj
 0002:000032f0       ??_C@_0CG@BDJM@COND_CopyText?5unable?5to?5obtain?5m@ 004762f0     ctn_lib:condition.obj
 0002:00003318       ??_C@_0CO@MGOA@COND_WriteConditions?5unable?5to?5r@ 00476318     ctn_lib:condition.obj
 0002:00003348       ??_C@_0CN@HOHI@COND_WriteConditions?5unable?5to?5o@ 00476348     ctn_lib:condition.obj
 0002:00003378       ??_C@_0BE@NHOG@Class?5UID?3?5?5?5?5?5?5?$CFs?6?$AA@ 00476378     ctn_lib:dump.obj
 0002:0000338c       ??_C@_0BG@GBDP@Data?5Set?5Type?3?5?5?$CF04x?6?$AA@ 0047638c     ctn_lib:dump.obj
 0002:000033a4       ??_C@_0BE@BALJ@Message?5ID?3?5?5?5?5?5?$CFd?6?$AA@ 004763a4     ctn_lib:dump.obj
 0002:000033b8       ??_C@_0O@NOLD@Echo?5Request?6?$AA@ 004763b8     ctn_lib:dump.obj
 0002:000033c8       ??_C@_0BN@DGBF@Class?5UID?3?5?5?5?5?5?5?5?5?5?5?5?5?5?5?5?$CFs?6?$AA@ 004763c8     ctn_lib:dump.obj
 0002:000033e8       ??_C@_0CA@IPP@Status?3?5?5?5?5?5?5?5?5?5?5?5?5?5?5?5?5?5?5?$CF04x?5?5?$AA@ 004763e8     ctn_lib:dump.obj
 0002:00003408       ??_C@_0BP@CHJC@Data?5Set?5Type?3?5?5?5?5?5?5?5?5?5?5?5?$CF04x?6?$AA@ 00476408     ctn_lib:dump.obj
 0002:00003428       ??_C@_0BN@BIKF@Message?5ID?5Responded?5To?3?5?$CFd?6?$AA@ 00476428     ctn_lib:dump.obj
 0002:00003448       ??_C@_0P@KJBP@Echo?5Response?6?$AA@ 00476448     ctn_lib:dump.obj
 0002:00003458       ??_C@_0CA@CBOI@Move?5AE?5Title?3?5?5?5?5?5?5?5?5?5?5?5?5?5?5?$CFs?6?$AA@ 00476458     ctn_lib:dump.obj
 0002:00003478       ??_C@_0CB@PBCD@Move?5Message?5ID?3?5?5?5?5?5?5?5?5?5?5?5?5?$CFhd?6@ 00476478     ctn_lib:dump.obj
 0002:0000349c       ??_C@_0BE@BKON@Instance?5UID?3?5?5?5?$CFs?6?$AA@ 0047649c     ctn_lib:dump.obj
 0002:000034b0       ??_C@_0BG@DJEO@Priority?3?5?5?5?5?5?5?5?$CF04x?6?$AA@ 004764b0     ctn_lib:dump.obj
 0002:000034c8       ??_C@_0P@NFPG@Store?5Request?6?$AA@ 004764c8     ctn_lib:dump.obj
 0002:000034d8       ??_C@_0BE@OGDB@ErrorComment?3?5?5?5?$CFs?6?$AA@ 004764d8     ctn_lib:dump.obj
 0002:000034ec       ??_C@_0BH@NEKP@Status?3?5?5?5?5?5?5?5?5?5?$CF04x?5?5?$AA@ 004764ec     ctn_lib:dump.obj
 0002:00003504       ??_C@_0BE@DNHN@Message?5ID?5Resp?3?$CFd?6?$AA@ 00476504     ctn_lib:dump.obj
 0002:00003518       ??_C@_0BA@OGBE@Store?5Response?6?$AA@ 00476518     ctn_lib:dump.obj
 0002:00003528       ??_C@_0BP@MHJE@Priority?3?5?5?5?5?5?5?5?5?5?5?5?5?5?5?5?5?$CF04x?6?$AA@ 00476528     ctn_lib:dump.obj
 0002:00003548       ??_C@_0BN@GAMJ@Message?5ID?3?5?5?5?5?5?5?5?5?5?5?5?5?5?5?$CFd?6?$AA@ 00476548     ctn_lib:dump.obj
 0002:00003568       ??_C@_0P@PMFI@CFind?5Request?6?$AA@ 00476568     ctn_lib:dump.obj
 0002:00003578       ??_C@_0BN@IFPN@Error?5Comment?3?5?5?5?5?5?5?5?5?5?5?5?$CFs?6?$AA@ 00476578     ctn_lib:dump.obj
 0002:00003598       ??_C@_0BA@IIDN@CFind?5Response?6?$AA@ 00476598     ctn_lib:dump.obj
 0002:000035a8       ??_C@_0BN@JOIA@Move?5classUID?3?5?5?5?5?5?5?5?5?5?5?5?$CFs?6?$AA@ 004765a8     ctn_lib:dump.obj
 0002:000035c8       ??_C@_0BN@HPCC@Move?5Destination?5Title?3?5?5?$CFs?6?$AA@ 004765c8     ctn_lib:dump.obj
 0002:000035e8       ??_C@_0BP@GFEP@Move?5Priority?3?5?5?5?5?5?5?5?5?5?5?5?$CF04x?6?$AA@ 004765e8     ctn_lib:dump.obj
 0002:00003608       ??_C@_0BP@IMEA@Move?5Data?5Set?5Type?3?5?5?5?5?5?5?$CF04x?6?$AA@ 00476608     ctn_lib:dump.obj
 0002:00003628       ??_C@_0O@GPBG@Move?5Request?6?$AA@ 00476628     ctn_lib:dump.obj
 0002:00003638       ??_C@_0BO@IOGK@Warning?5Suboperations?3?5?5?5?$CFhd?6?$AA@ 00476638     ctn_lib:dump.obj
 0002:00003658       ??_C@_0BO@BMCD@Failed?5Suboperations?3?5?5?5?5?$CFhd?6?$AA@ 00476658     ctn_lib:dump.obj
 0002:00003678       ??_C@_0BO@DJLA@Completed?5Suboperations?3?5?$CFhd?6?$AA@ 00476678     ctn_lib:dump.obj
 0002:00003698       ??_C@_0BO@NBHL@Remaining?5Suboperations?3?5?$CFhd?6?$AA@ 00476698     ctn_lib:dump.obj
 0002:000036b8       ??_C@_0CA@MLOD@Move?5Status?3?5?5?5?5?5?5?5?5?5?5?5?5?5?$CF04x?5?5?$AA@ 004766b8     ctn_lib:dump.obj
 0002:000036d8       ??_C@_0P@DJKO@Move?5Response?6?$AA@ 004766d8     ctn_lib:dump.obj
 0002:000036e8       ??_C@_0BM@PNMF@Get?5classUID?3?5?5?5?5?5?5?5?5?5?5?5?$CFs?6?$AA@ 004766e8     ctn_lib:dump.obj
 0002:00003704       ??_C@_0BO@CKEB@Get?5Priority?3?5?5?5?5?5?5?5?5?5?5?5?$CF04x?6?$AA@ 00476704     ctn_lib:dump.obj
 0002:00003724       ??_C@_0BO@MDEO@Get?5Data?5Set?5Type?3?5?5?5?5?5?5?$CF04x?6?$AA@ 00476724     ctn_lib:dump.obj
 0002:00003744       ??_C@_0N@JNFG@Get?5Request?6?$AA@ 00476744     ctn_lib:dump.obj
 0002:00003754       ??_C@_0BP@JEKM@Get?5Status?3?5?5?5?5?5?5?5?5?5?5?5?5?5?$CF04x?5?5?$AA@ 00476754     ctn_lib:dump.obj
 0002:00003774       ??_C@_0O@ICFM@Get?5Response?6?$AA@ 00476774     ctn_lib:dump.obj
 0002:00003784       ??_C@_0BE@EEHN@Event?5Information?3?6?$AA@ 00476784     ctn_lib:dump.obj
 0002:00003798       ??_C@_0BJ@HJPN@Instance?5UID?3?5?5?5?5?5?5?5?5?$CFs?6?$AA@ 00476798     ctn_lib:dump.obj
 0002:000037b4       ??_C@_0BJ@MOPM@Class?5UID?3?5?5?5?5?5?5?5?5?5?5?5?$CFs?6?$AA@ 004767b4     ctn_lib:dump.obj
 0002:000037d0       ??_C@_0BL@GACM@Event?5Type?5ID?3?5?5?5?5?5?5?5?$CF04x?6?$AA@ 004767d0     ctn_lib:dump.obj
 0002:000037ec       ??_C@_0BL@MKHK@Data?5Set?5Type?3?5?5?5?5?5?5?5?$CF04x?6?$AA@ 004767ec     ctn_lib:dump.obj
 0002:00003808       ??_C@_0BJ@IBOO@Message?5ID?3?5?5?5?5?5?5?5?5?5?5?$CFd?6?$AA@ 00476808     ctn_lib:dump.obj
 0002:00003824       ??_C@_0BH@NLDD@N?5EventReport?5Request?6?$AA@ 00476824     ctn_lib:dump.obj
 0002:0000383c       ??_C@_0O@GPFN@Event?5Reply?3?6?$AA@ 0047683c     ctn_lib:dump.obj
 0002:0000384c       ??_C@_0BK@OJIC@ConditionalFields?3?7?5?$CF04x?6?$AA@ 0047684c     ctn_lib:dump.obj
 0002:00003868       ??_C@_0BN@LPJG@Instance?5UID?3?5?5?5?5?5?5?5?5?5?5?5?5?$CFs?6?$AA@ 00476868     ctn_lib:dump.obj
 0002:00003888       ??_C@_0BP@NLMF@Event?5Type?5ID?3?5?5?5?5?5?5?5?5?5?5?5?$CF04x?6?$AA@ 00476888     ctn_lib:dump.obj
 0002:000038a8       ??_C@_0BP@EMFJ@Status?3?5?5?5?5?5?5?5?5?5?5?5?5?5?5?5?5?5?5?$CF04x?6?$AA@ 004768a8     ctn_lib:dump.obj
 0002:000038c8       ??_C@_0BI@LABK@N?5EventReport?5Response?6?$AA@ 004768c8     ctn_lib:dump.obj
 0002:000038e0       ??_C@_0BI@OIGI@Attribute?3?5?5?5?$CF04x?5?$CF04x?6?$AA@ 004768e0     ctn_lib:dump.obj
 0002:000038f8       ??_C@_0BA@IMGO@Message?5ID?3?5?$CFd?6?$AA@ 004768f8     ctn_lib:dump.obj
 0002:00003908       ??_C@_0P@GHNM@N?5Get?5Request?6?$AA@ 00476908     ctn_lib:dump.obj
 0002:00003918       ??_C@_0BA@LKKG@N?5Get?5Response?6?$AA@ 00476918     ctn_lib:dump.obj
 0002:00003928       ??_C@_0P@ONO@N?5Set?5Request?6?$AA@ 00476928     ctn_lib:dump.obj
 0002:00003938       ??_C@_0BA@OJMP@N?5Set?5Response?6?$AA@ 00476938     ctn_lib:dump.obj
 0002:00003948       ??_C@_0BE@ENPG@Action?5Information?6?$AA@ 00476948     ctn_lib:dump.obj
 0002:0000395c       ??_C@_0CA@DGKG@Action?5Type?5ID?3?5?5?5?5?5?5?5?5?5?5?5?$CF04x?6?$AA@ 0047695c     ctn_lib:dump.obj
 0002:0000397c       ??_C@_0BC@CHIO@N?5Action?5Request?6?$AA@ 0047697c     ctn_lib:dump.obj
 0002:00003990       ??_C@_0BD@EOG@N?5Action?5Response?6?$AA@ 00476990     ctn_lib:dump.obj
 0002:000039a4       ??_C@_0BC@CCI@N?5Create?5Request?6?$AA@ 004769a4     ctn_lib:dump.obj
 0002:000039b8       ??_C@_0BD@ONMD@N?5Create?5Response?6?$AA@ 004769b8     ctn_lib:dump.obj
 0002:000039cc       ??_C@_0BC@EGEB@N?5Delete?5Request?6?$AA@ 004769cc     ctn_lib:dump.obj
 0002:000039e0       ??_C@_0BD@IIIH@N?5Delete?5Response?6?$AA@ 004769e0     ctn_lib:dump.obj
 0002:000039f4       ??_C@_0CH@IDGO@?7Description?5of?5status?5code?5not?5@ 004769f4     ctn_lib:dump.obj
 0002:00003a1c       ??_C@_04HIGM@?7?$CFs?6?$AA@ 00476a1c     ctn_lib:dump.obj
 0002:00003a24       ??_C@_0BH@LGN@Status?5Information?3?9?5?6?$AA@ 00476a24     ctn_lib:dump.obj
 0002:00003a3c       ??_C@_0DL@JKAN@INVALID?5Message?5sent?5for?5dumping@ 00476a3c     ctn_lib:dump.obj
 0002:00003a78       ??_C@_0BH@FBOC@Conditional?5fields?5?3?9?6?$AA@ 00476a78     ctn_lib:dump.obj
 0002:00003a90       ??_C@_0DB@OHHM@INVALID?5Message?5sent?5for?5dumping@ 00476a90     ctn_lib:dump.obj
 0002:00003ac4       ??_C@_0BH@LBFK@?7Action?5Type?5ID?3?7?$CF04x?6?$AA@ 00476ac4     ctn_lib:dump.obj
 0002:00003adc       ??_C@_0CP@IOHB@INVALID?5Message?5sent?5for?5dumping@ 00476adc     ctn_lib:dump.obj
 0002:00003b0c       ??_C@_0BA@NOCB@?7Action?5Reply?3?6?$AA@ 00476b0c     ctn_lib:dump.obj
 0002:00003b1c       ??_C@_0CL@NCMM@INVALID?5Message?5sent?5for?5dumping@ 00476b1c     ctn_lib:dump.obj
 0002:00003b48       ??_C@_0BG@HLKP@?7Event?5Type?5ID?3?7?$CF04x?6?$AA@ 00476b48     ctn_lib:dump.obj
 0002:00003b60       ??_C@_0CO@ENKA@INVALID?5Message?5sent?5for?5dumping@ 00476b60     ctn_lib:dump.obj
 0002:00003b90       ??_C@_0P@MNIH@?7Event?5Reply?3?6?$AA@ 00476b90     ctn_lib:dump.obj
 0002:00003ba0       ??_C@_0DG@DKKM@INVALID?5Message?5sent?5for?5dumping@ 00476ba0     ctn_lib:dump.obj
 0002:00003bd8       ??_C@_0BH@CGDF@?7Requested?5Class?5UID?3?7?$AA@ 00476bd8     ctn_lib:dump.obj
 0002:00003bf0       ??_C@_0DJ@IGJL@INVALID?5Message?5sent?5for?5dumping@ 00476bf0     ctn_lib:dump.obj
 0002:00003c2c       ??_C@_0BK@PFBO@?7Requested?5Instance?5UID?3?7?$AA@ 00476c2c     ctn_lib:dump.obj
 0002:00003c48       ??_C@_0DE@POO@INVALID?5Message?5sent?5for?5dumping@ 00476c48     ctn_lib:dump.obj
 0002:00003c7c       ??_C@_0BC@OCDA@?7Error?5Comment?3?7?7?$AA@ 00476c7c     ctn_lib:dump.obj
 0002:00003c90       ??_C@_0CP@CKKF@INVALID?5Message?5sent?5for?5dumping@ 00476c90     ctn_lib:dump.obj
 0002:00003cc0       ??_C@_05FBAA@?$CF04x?6?$AA@ 00476cc0     ctn_lib:dump.obj
 0002:00003cc8       ??_C@_0M@LFGJ@?7Error?5ID?3?7?$AA@ 00476cc8     ctn_lib:dump.obj
 0002:00003cd4       ??_C@_0DF@HHCJ@INVALID?5Message?5sent?5for?5dumping@ 00476cd4     ctn_lib:dump.obj
 0002:00003d0c       ??_C@_0BD@IFCL@?7?7Description?3?5?$CFs?6?$AA@ 00476d0c     ctn_lib:dump.obj
 0002:00003d20       ??_C@_0CC@GFE@?7?7Description?3?5Unknown?5Attribute@ 00476d20     ctn_lib:dump.obj
 0002:00003d44       ??_C@_0BJ@ONJF@?7Attribute?3?5?5?5?$CF04x?5?$CF04x?6?$AA@ 00476d44     ctn_lib:dump.obj
 0002:00003d60       ??_C@_0BB@ECMJ@Attribute?5List?3?6?$AA@ 00476d60     ctn_lib:dump.obj
 0002:00003d74       ??_C@_0O@JHOF@STOREASPART10?$AA@ 00476d74     ctn_lib:storage.obj
 0002:00003d84       ??_C@_0M@JCKL@dataSetType?$AA@ 00476d84     ctn_lib:storage.obj
 0002:00003d90       ??_C@_04PIKN@type?$AA@     00476d90     ctn_lib:storage.obj
 0002:00003d98       ??_C@_0O@DNMJ@STORE?5Request?$AA@ 00476d98     ctn_lib:storage.obj
 0002:00003da8       ??_C@_0BC@DFDL@SRV_CStoreRequest?$AA@ 00476da8     ctn_lib:storage.obj
 0002:00003dbc       ??_C@_0CM@HFPG@Storage?5Service?5unable?5to?5create@ 00476dbc     ctn_lib:storage.obj
 0002:00003de8       ??_C@_0BD@CHHI@STORAGE?1PART10FLAG?$AA@ 00476de8     ctn_lib:storage.obj
 0002:00003dfc       ??_C@_0BD@GBNM@SRV_CStoreResponse?$AA@ 00476dfc     ctn_lib:storage.obj
 0002:00003e10       ??_C@_02CNFA@XX?$AA@       00476e10     ctn_lib:storage.obj
 0002:00003e14       ??_C@_0BJ@PDBG@Unrecognized?1invalid?5PDU?$AA@ 00476e14     ctn_lib:dulfsm.obj
 0002:00003e30       ??_C@_0BO@NMJC@ARTIM?5timer?5expired?5?$CIrej?1rel?$CJ?$AA@ 00476e30     ctn_lib:dulfsm.obj
 0002:00003e50       ??_C@_0BM@BHML@Transport?5connection?5closed?$AA@ 00476e50     ctn_lib:dulfsm.obj
 0002:00003e6c       ??_C@_0BL@KHCI@A?9ABORT?5PDU?5?$CIon?5transport?$CJ?$AA@ 00476e6c     ctn_lib:dulfsm.obj
 0002:00003e88       ??_C@_0BK@LHHH@A?9ABORT?5request?5primitive?$AA@ 00476e88     ctn_lib:dulfsm.obj
 0002:00003ea4       ??_C@_0BN@JAOI@A?9RELEASE?5response?5primitive?$AA@ 00476ea4     ctn_lib:dulfsm.obj
 0002:00003ec4       ??_C@_0CA@FCDM@A?9RELEASE?9RP?5PDU?5?$CIon?5transport?$CJ?$AA@ 00476ec4     ctn_lib:dulfsm.obj
 0002:00003ee4       ??_C@_0CA@BBMC@A?9RELEASE?9RQ?5PDU?5?$CIon?5transport?$CJ?$AA@ 00476ee4     ctn_lib:dulfsm.obj
 0002:00003f04       ??_C@_0BM@KCCD@A?9RELEASE?5request?5primitive?$AA@ 00476f04     ctn_lib:dulfsm.obj
 0002:00003f20       ??_C@_0BN@FECK@P?9DATA?9TF?5PDU?5?$CIon?5transport?$CJ?$AA@ 00476f20     ctn_lib:dulfsm.obj
 0002:00003f40       ??_C@_0BJ@IGDI@P?9DATA?5request?5primitive?$AA@ 00476f40     ctn_lib:dulfsm.obj
 0002:00003f5c       ??_C@_0BP@FHIM@A?9ASSOCIATE?5resp?5prim?5?$CIreject?$CJ?$AA@ 00476f5c     ctn_lib:dulfsm.obj
 0002:00003f7c       ??_C@_0BP@MGPG@A?9ASSOCIATE?5resp?5prim?5?$CIaccept?$CJ?$AA@ 00476f7c     ctn_lib:dulfsm.obj
 0002:00003f9c       ??_C@_0CB@HPHP@A?9ASSOCIATE?9RQ?5PDU?5?$CIon?5tranport?$CJ@ 00476f9c     ctn_lib:dulfsm.obj
 0002:00003fc0       ??_C@_0CA@IBCK@Transport?5connection?5indication?$AA@ 00476fc0     ctn_lib:dulfsm.obj
 0002:00003fe0       ??_C@_0CC@CFEC@A?9ASSOCIATE?9RJ?5PDU?5?$CIon?5transport@ 00476fe0     ctn_lib:dulfsm.obj
 0002:00004004       ??_C@_0CC@MNLH@A?9ASSOCIATE?9AC?5PDU?5?$CIon?5transport@ 00477004     ctn_lib:dulfsm.obj
 0002:00004028       ??_C@_0CE@MNLJ@Transport?5conn?5confirmation?5?$CIloc@ 00477028     ctn_lib:dulfsm.obj
 0002:0000404c       ??_C@_0CB@CFP@A?9ASSOCIATE?5request?5?$CIlocal?5user?$CJ@ 0047704c     ctn_lib:dulfsm.obj
 0002:00004070       ??_C@_04MIPF@?$CF?4?$CKs?$AA@ 00477070     ctn_lib:dulfsm.obj
 0002:00004078       ??_C@_0DJ@NONG@PRV_StateMachine?3?5No?5action?5defi@ 00477078     ctn_lib:dulfsm.obj
 0002:000040b4       ??_C@_0CL@HLKF@This?5must?5be?5a?5coding?5error?5of?5s@ 004770b4     ctn_lib:dulfsm.obj
 0002:000040e0       ??_C@_0P@CMMN@Bad?5state?3?5?$CFd?6?$AA@ 004770e0     ctn_lib:dulfsm.obj
 0002:000040f0       ??_C@_0CM@HHLO@This?5must?5be?5a?5coding?5error?5of?5s@ 004770f0     ctn_lib:dulfsm.obj
 0002:0000411c       ??_C@_0P@FLDA@Bad?5event?3?5?$CFd?6?$AA@ 0047711c     ctn_lib:dulfsm.obj
 0002:0000412c       ??_C@_0EB@DAAJ@AE_1_TransportConnect?5no?5longer?5@ 0047712c     ctn_lib:dulfsm.obj
 0002:00004170       ??_C@_0CB@MCGB@AE_3_AssociateConfirmationAccept@ 00477170     ctn_lib:dulfsm.obj
 0002:00004194       ??_C@_0BB@DFBF@Associate?5Accept?$AA@ 00477194     ctn_lib:dulfsm.obj
 0002:000041a8       ??_C@_0BN@FEJL@AE_6_ExamineAssociateRequest?$AA@ 004771a8     ctn_lib:dulfsm.obj
 0002:000041c8       ??_C@_0BC@BNFA@Associate?5Request?$AA@ 004771c8     ctn_lib:dulfsm.obj
 0002:000041dc       ??_C@_0BI@GJEH@?5malformed?5P?5DATA?5PDU?4?6?$AA@ 004771dc     ctn_lib:dulfsm.obj
 0002:000041f4       ??_C@_0DC@BNEB@In?5DT_2_IndicatePData?4?5?5This?5pro@ 004771f4     ctn_lib:dulfsm.obj
 0002:00004228       ??_C@_0CN@IAPI@PDV?5Lengths?5don?8t?5add?5up?5correct@ 00477228     ctn_lib:dulfsm.obj
 0002:00004258       ??_C@_0BG@IMLM@requestAssociationTCP?$AA@ 00477258     ctn_lib:dulfsm.obj
 0002:00004270       ??_C@_0BF@JFGA@sendAssociationRQTCP?$AA@ 00477270     ctn_lib:dulfsm.obj
 0002:00004288       ??_C@_0BE@KPOM@ReplyAssociationTCP?$AA@ 00477288     ctn_lib:dulfsm.obj
 0002:0000429c       ??_C@_0BF@IFCH@sendAssociationRJTCP?$AA@ 0047729c     ctn_lib:dulfsm.obj
 0002:000042b4       ??_C@_0N@GJJI@sendAbortTCP?$AA@ 004772b4     ctn_lib:dulfsm.obj
 0002:000042c4       ??_C@_0BB@NCIF@sendReleaseRQTCP?$AA@ 004772c4     ctn_lib:dulfsm.obj
 0002:000042d8       ??_C@_0BB@PHNH@sendReleaseRPTCP?$AA@ 004772d8     ctn_lib:dulfsm.obj
 0002:000042ec       ??_C@_0N@KEOM@writeDataPDU?$AA@ 004772ec     ctn_lib:dulfsm.obj
 0002:000042fc       ??_C@_0M@MOHN@readPDUHead?$AA@ 004772fc     ctn_lib:dulfsm.obj
 0002:00004308       ??_C@_0CD@KMOE@buffer?5too?5small?5in?5readPDUTCPHe@ 00477308     ctn_lib:dulfsm.obj
 0002:0000432c       ??_C@_06FBAP@?5?5?$CF02x?$AA@ 0047732c     ctn_lib:dulfsm.obj
 0002:00004334       ??_C@_0BI@HGJD@Only?5dumping?5512?5bytes?6?$AA@ 00477334     ctn_lib:dulfsm.obj
 0002:0000434c       ??_C@_0BO@KLOI@PDU?5Type?3?5?$CFs?5PDU?5Length?3?5?$CFld?6?$AA@ 0047734c     ctn_lib:dulfsm.obj
 0002:0000436c       ??_C@_0CB@PGD@translatePresentationContextList@ 0047736c     ctn_lib:dulfsm.obj
 0002:00004390       ??_C@_0BJ@JADI@DULPRV_translateAssocReq?$AA@ 00477390     ctn_lib:dulfsm.obj
 0002:000043ac       ??_C@_0BO@IPDJ@DUL?5General?5perror?5?$CI?$CFs?$CJ?5in?5?$CFs?$AA@ 004773ac     ctn_lib:dulcond.obj
 0002:000043cc       ??_C@_0CE@FHLE@DUL?5snoop?5function?5?$CFs?5unimplemen@ 004773cc     ctn_lib:dulcond.obj
 0002:000043f0       ??_C@_0DG@PJDM@DUL?5snooper?5transition?5into?5bad?5@ 004773f0     ctn_lib:dulcond.obj
 0002:00004428       ??_C@_0DA@JFCB@DUL?5SNP?5facility?5in?5bad?5state?5?$CFs@ 00477428     ctn_lib:dulcond.obj
 0002:00004458       ??_C@_0DI@LKJN@DUL?5SNP?5Error?5?$CFs?5with?5?$CFd?5associa@ 00477458     ctn_lib:dulcond.obj
 0002:00004490       ??_C@_0CM@MKPK@DUL?5Failure?5of?5SNP_Terminate?5fun@ 00477490     ctn_lib:dulcond.obj
 0002:000044bc       ??_C@_0CH@BMN@DUL?5Failure?5of?5SNP_Stop?5function@ 004774bc     ctn_lib:dulcond.obj
 0002:000044e4       ??_C@_0CI@IEAF@DUL?5Failure?5of?5SNP_Start?5functio@ 004774e4     ctn_lib:dulcond.obj
 0002:0000450c       ??_C@_0DC@LHPL@DUL?5Expecting?5more?5data?5from?5fil@ 0047750c     ctn_lib:dulcond.obj
 0002:00004540       ??_C@_0BL@BEDJ@DUL?5SNP_Init?5failure?5in?5?$CFs?$AA@ 00477540     ctn_lib:dulcond.obj
 0002:0000455c       ??_C@_0CI@DKFF@DUL?5Error?5registering?5callback?5?$CF@ 0047755c     ctn_lib:dulcond.obj
 0002:00004584       ??_C@_0CC@DFFD@DUL?5Error?5using?5callback?5?$CFs?5in?5?$CF@ 00477584     ctn_lib:dulcond.obj
 0002:000045a8       ??_C@_0CA@JGAD@DUL?5Error?5opening?5file?5?$CFs?5in?5?$CFs?$AA@ 004775a8     ctn_lib:dulcond.obj
 0002:000045c8       ??_C@_0DD@DABK@DUL?5Presentation?5Context?5transla@ 004775c8     ctn_lib:dulcond.obj
 0002:000045fc       ??_C@_0DL@NEMA@DUL?5Peer?5supplied?5illegal?5number@ 004775fc     ctn_lib:dulcond.obj
 0002:00004638       ??_C@_0DI@PFPK@DUL?5Unsupported?5peer?5protocol?5?$CF0@ 00477638     ctn_lib:dulcond.obj
 0002:00004670       ??_C@_0CG@HDOO@DUL?5Failed?5to?5create?5a?5new?5list?5@ 00477670     ctn_lib:dulcond.obj
 0002:00004698       ??_C@_0DC@PDCK@DUL?5Illegal?5PDU?5Length?5?$CFd?4?5?5Max?5@ 00477698     ctn_lib:dulcond.obj
 0002:000046cc       ??_C@_0CH@KGPA@DUL?5List?5error?5occurred?5in?5funct@ 004776cc     ctn_lib:dulcond.obj
 0002:000046f4       ??_C@_0CK@DDJK@DUL?5Illegal?5parameter?5?$CI?$CFs?$CJ?5in?5fu@ 004776f4     ctn_lib:dulcond.obj
 0002:00004720       ??_C@_0CI@GEKE@DUL?5No?5PDVs?5available?5in?5current@ 00477720     ctn_lib:dulcond.obj
 0002:00004748       ??_C@_0CF@DKED@DUL?5Failed?5to?5retrieve?5parameter@ 00477748     ctn_lib:dulcond.obj
 0002:00004770       ??_C@_0CO@GJI@DUL?5Incorrect?5buffer?5space?5alloc@ 00477770     ctn_lib:dulcond.obj
 0002:000047a0       ??_C@_0DB@HAJD@DUL?5Insufficient?5buffer?5space?5al@ 004777a0     ctn_lib:dulcond.obj
 0002:000047d4       ??_C@_0CK@KMAB@DUL?5Wrong?5Data?5Type?5Specified?5fo@ 004777d4     ctn_lib:dulcond.obj
 0002:00004800       ??_C@_0BL@IIAO@DUL?5Peer?5Requested?5Release?$AA@ 00477800     ctn_lib:dulcond.obj
 0002:0000481c       ??_C@_0DD@PPI@DUL?5Finite?5State?5Machine?5Error?0?5@ 0047781c     ctn_lib:dulcond.obj
 0002:00004850       ??_C@_0CM@EDIE@DUL?5Illegal?5or?5ill?9formed?5pdu?5of@ 00477850     ctn_lib:dulcond.obj
 0002:0000487c       ??_C@_0BD@GOLN@DUL?5network?5closed?$AA@ 0047787c     ctn_lib:dulcond.obj
 0002:00004890       ??_C@_0BJ@DOFH@DUL?5network?5read?5timeout?$AA@ 00477890     ctn_lib:dulcond.obj
 0002:000048ac       ??_C@_0BH@FOFJ@DUL?5P?9Data?5PDU?5arrived?$AA@ 004778ac     ctn_lib:dulcond.obj
 0002:000048c4       ??_C@_0BG@PECP@DUL?5Release?5Confirmed?$AA@ 004778c4     ctn_lib:dulcond.obj
 0002:000048dc       ??_C@_0DB@GPGJ@DUL?5Illegal?5result?5for?5rejecting@ 004778dc     ctn_lib:dulcond.obj
 0002:00004910       ??_C@_0DB@LAGM@DUL?5Illegal?5reason?5for?5rejecting@ 00477910     ctn_lib:dulcond.obj
 0002:00004944       ??_C@_0BJ@LCGD@DUL?5Association?5Rejected?$AA@ 00477944     ctn_lib:dulcond.obj
 0002:00004960       ??_C@_0O@HIID@DUL?5A?9P?9ABORT?$AA@ 00477960     ctn_lib:dulcond.obj
 0002:00004970       ??_C@_0CA@FIKO@Failed?5to?5establish?5association?$AA@ 00477970     ctn_lib:dulcond.obj
 0002:00004990       ??_C@_0BO@OBJD@Illegal?5service?5parameter?3?5?$CFs?$AA@ 00477990     ctn_lib:dulcond.obj
 0002:000049b0       ??_C@_0CA@OAGC@Coding?5Error?5in?5DUL?5routine?3?5?$CFs?$AA@ 004779b0     ctn_lib:dulcond.obj
 0002:000049d0       ??_C@_0CG@NLGE@Wrong?5Association?5state?5for?5oper@ 004779d0     ctn_lib:dulcond.obj
 0002:000049f8       ??_C@_0BJ@KAC@Peer?5dropped?5Association?$AA@ 004779f8     ctn_lib:dulcond.obj
 0002:00004a14       ??_C@_0CO@IEEC@Peer?5aborted?5Association?5?$CIor?5nev@ 00477a14     ctn_lib:dulcond.obj
 0002:00004a44       ??_C@_0BL@ILML@Unrecognized?5PDU?5type?3?5?$CF2x?$AA@ 00477a44     ctn_lib:dulcond.obj
 0002:00004a60       ??_C@_0CN@HHC@No?5requests?5for?5associations?5for@ 00477a60     ctn_lib:dulcond.obj
 0002:00004a90       ??_C@_0CL@DKHA@TCP?5I?1O?5Error?5?$CI?$CFs?$CJ?5occurred?5in?5r@ 00477a90     ctn_lib:dulcond.obj
 0002:00004abc       ??_C@_0CF@NFLJ@Routine?5?$CFs?5failed?5to?5malloc?5?$CFd?5b@ 00477abc     ctn_lib:dulcond.obj
 0002:00004ae4       ??_C@_0CH@OHEK@Attempt?5to?5connect?5to?5unknown?5ho@ 00477ae4     ctn_lib:dulcond.obj
 0002:00004b0c       ??_C@_0CJ@NMIC@Connection?5attempt?5from?5unknown?5@ 00477b0c     ctn_lib:dulcond.obj
 0002:00004b38       ??_C@_0BI@PBJM@Received?5unexpected?5PDU?$AA@ 00477b38     ctn_lib:dulcond.obj
 0002:00004b50       ??_C@_0BP@JJBO@Attempt?5to?5request?5by?5acceptor?$AA@ 00477b50     ctn_lib:dulcond.obj
 0002:00004b70       ??_C@_0BP@EKFH@Attempt?5to?5accept?5by?5requestor?$AA@ 00477b70     ctn_lib:dulcond.obj
 0002:00004b90       ??_C@_0CC@CBLE@Illegal?5key?5passed?5to?5routine?3?5?$CF@ 00477b90     ctn_lib:dulcond.obj
 0002:00004bb4       ??_C@_0BP@FHAL@NULL?5key?5passed?5to?5routine?3?5?$CFs?$AA@ 00477bb4     ctn_lib:dulcond.obj
 0002:00004bd4       ??_C@_0BN@ML@TCP?5Initialization?5Error?3?5?$CFs?$AA@ 00477bd4     ctn_lib:dulcond.obj
 0002:00004bf4       ??_C@_0CE@PMOG@Unrecognized?5Application?5Entity?3@ 00477bf4     ctn_lib:dulcond.obj
 0002:00004c18       ??_C@_0BN@GKJ@Unsupported?5network?5type?3?5?$CFs?$AA@ 00477c18     ctn_lib:dulcond.obj
 0002:00004c38       ??_C@_0BF@DMHN@Failed?5to?5create?5key?$AA@ 00477c38     ctn_lib:dulcond.obj
 0002:00004c50       ??_C@_0BM@KBCC@Network?5already?5initialized?$AA@ 00477c50     ctn_lib:dulcond.obj
 0002:00004c6c       ??_C@_0BP@LNIB@Normal?5return?5from?5DUL?5routine?$AA@ 00477c6c     ctn_lib:dulcond.obj
 0002:00004c8c       ??_C@_0P@GCCJ@parseAssociate?$AA@ 00477c8c     ctn_lib:dulparse.obj
 0002:00004c9c       ??_C@_0BJ@EBML@parsePresentationContext?$AA@ 00477c9c     ctn_lib:dulparse.obj
 0002:00004cb8       ??_C@_0O@HDJG@parseUserInfo?$AA@ 00477cb8     ctn_lib:dulparse.obj
 0002:00004cc8       ??_C@_0BP@NCKO@Constructing?5Associate?5AC?5PDU?6?$AA@ 00477cc8     ctn_lib:dulconstruct.obj
 0002:00004ce8       ??_C@_0BP@DJAI@Constructing?5Associate?5RQ?5PDU?6?$AA@ 00477ce8     ctn_lib:dulconstruct.obj
 0002:00004d08       ??_C@_0BB@PDPM@Calling?5AP?5Title?$AA@ 00477d08     ctn_lib:dulconstruct.obj
 0002:00004d1c       ??_C@_0BA@DCCO@Called?5AP?5Title?$AA@ 00477d1c     ctn_lib:dulconstruct.obj
 0002:00004d2c       ??_C@_0BG@JKGD@constructAssociatePDU?$AA@ 00477d2c     ctn_lib:dulconstruct.obj
 0002:00004d44       ??_C@_0DA@JGBJ@buffer?5too?5short?5in?5streamReject@ 00477d44     ctn_lib:dulconstruct.obj
 0002:00004d74       ??_C@_0CG@FDOJ@buffer?5too?5short?5in?5streamDataPD@ 00477d74     ctn_lib:dulconstruct.obj
 0002:00004d9c       ??_C@_0BN@PHLA@constructPresentationContext?$AA@ 00477d9c     ctn_lib:dulconstruct.obj
 0002:00004dbc       ??_C@_0BF@COHG@constructSCUSCPRoles?$AA@ 00477dbc     ctn_lib:dulconstruct.obj
 0002:00004dd4       ??_C@_0BK@PIEC@streamPresentationContext?$AA@ 00477dd4     ctn_lib:dulconstruct.obj
 0002:00004df0       ??_C@_0BI@KILE@DUL_MakePresentationCtx?$AA@ 00477df0     ctn_lib:dulpresent.obj
 0002:00004e08       ??_C@_0BN@CDEG@DUL_AddSinglePresentationCtx?$AA@ 00477e08     ctn_lib:dulpresent.obj
 0002:00004e28       ??_C@_0CC@DIHP@SRV?5Receive?5Data?5Set?5failed?5in?5?$CF@ 00477e28     ctn_lib:srvcond.obj
 0002:00004e4c       ??_C@_0EJ@EMMI@SRV?5PDV?5Received?5out?5of?5sequence@ 00477e4c     ctn_lib:srvcond.obj
 0002:00004e98       ??_C@_0CJ@JCPI@SRV?5Callback?5or?5peer?5cancelled?5o@ 00477e98     ctn_lib:srvcond.obj
 0002:00004ec4       ??_C@_0FH@JMFO@SRV?5In?5?$CFs?5response?0?5suspicious?5c@ 00477ec4     ctn_lib:srvcond.obj
 0002:00004f1c       ??_C@_0CC@GFNN@SRV?5Failed?5to?5create?5a?5list?5in?5?$CF@ 00477f1c     ctn_lib:srvcond.obj
 0002:00004f40       ??_C@_0CF@CLOP@SRV?5System?5error?5?$CI?$CFs?$CJ?5occurred?5i@ 00477f40     ctn_lib:srvcond.obj
 0002:00004f68       ??_C@_0CN@PEII@SRV?5Illegal?5Query?5Level?5Attribut@ 00477f68     ctn_lib:srvcond.obj
 0002:00004f98       ??_C@_0CP@CIFP@SRV?5Failed?5to?5find?5Query?5Level?5A@ 00477f98     ctn_lib:srvcond.obj
 0002:00004fc8       ??_C@_0CN@JKJB@SRV?5Failed?5to?5access?5object?5of?5t@ 00477fc8     ctn_lib:srvcond.obj
 0002:00004ff8       ??_C@_0BK@KEFL@SRV?5Response?5failed?5in?5?$CFs?$AA@ 00477ff8     ctn_lib:srvcond.obj
 0002:00005014       ??_C@_0DB@KIPG@SRV?5User?5callback?5function?5abort@ 00478014     ctn_lib:srvcond.obj
 0002:00005048       ??_C@_0DD@ELJE@SRV?5Unexpected?5DICOM?5Command?5?$CI?$CF0@ 00478048     ctn_lib:srvcond.obj
 0002:0000507c       ??_C@_0BJ@BCPM@SRV?5Request?5failed?5in?5?$CFs?$AA@ 0047807c     ctn_lib:srvcond.obj
 0002:00005098       ??_C@_0CM@DPE@SRV?5Failed?5to?5build?5object?5of?5ty@ 00478098     ctn_lib:srvcond.obj
 0002:000050c4       ??_C@_0CP@KDJO@SRV?5Illegal?5?$CFs?5parameter?5in?5?$CFs?5s@ 004780c4     ctn_lib:srvcond.obj
 0002:000050f4       ??_C@_0CP@FOBL@SRV?5No?5callback?5function?5defined@ 004780f4     ctn_lib:srvcond.obj
 0002:00005124       ??_C@_0EJ@NNBC@SRV?5Transfer?5Syntax?5?$CI?$CFs?$CJ?5is?5not?5@ 00478124     ctn_lib:srvcond.obj
 0002:00005170       ??_C@_0DE@DNMF@SRV?5Received?5unsupported?5DICOM?5C@ 00478170     ctn_lib:srvcond.obj
 0002:000051a4       ??_C@_0BP@JNFK@SRV?5Command?5Parse?5failed?5in?5?$CFs?$AA@ 004781a4     ctn_lib:srvcond.obj
 0002:000051c4       ??_C@_0CF@IIIE@SRV?5Presentation?5context?5error?5i@ 004781c4     ctn_lib:srvcond.obj
 0002:000051ec       ??_C@_0CE@KNOA@SRV?5Failed?5to?5malloc?5?$CFd?5bytes?5in@ 004781ec     ctn_lib:srvcond.obj
 0002:00005210       ??_C@_0BH@NBCK@SRV?5List?5Failure?5in?5?$CFs?$AA@ 00478210     ctn_lib:srvcond.obj
 0002:00005228       ??_C@_0CN@NDMI@SRV?5Service?5not?5supported?5in?5Ass@ 00478228     ctn_lib:srvcond.obj
 0002:00005258       ??_C@_0CD@GDCA@SRV?5Failed?5to?5create?5file?5?$CFs?5in?5@ 00478258     ctn_lib:srvcond.obj
 0002:0000527c       ??_C@_0CD@KFDD@SRV?5Unexpected?5PDV?5type?5?$CI?$CFd?$CJ?5in?5@ 0047827c     ctn_lib:srvcond.obj
 0002:000052a0       ??_C@_0BK@FLDF@SRV?5Read?5PDV?5Failed?5in?5?$CFs?$AA@ 004782a0     ctn_lib:srvcond.obj
 0002:000052bc       ??_C@_0DB@MNBO@SRV?5Unexpected?5presentation?5cont@ 004782bc     ctn_lib:srvcond.obj
 0002:000052f0       ??_C@_0CE@OFEK@SRV?5Object?5received?5too?5large?5in@ 004782f0     ctn_lib:srvcond.obj
 0002:00005314       ??_C@_0BL@GMDL@SRV?5Send?5?$CI?$CFs?$CJ?5failed?5in?5?$CFs?$AA@ 00478314     ctn_lib:srvcond.obj
 0002:00005330       ??_C@_0CH@PPPN@SRV?5Illegal?5Association?5in?5routi@ 00478330     ctn_lib:srvcond.obj
 0002:00005358       ??_C@_0CF@IOIC@SRV?5Failed?5to?5receive?5fragment?5i@ 00478358     ctn_lib:srvcond.obj
 0002:00005380       ??_C@_0CD@KEDK@SRV?5Peer?5Aborted?5Association?5in?5@ 00478380     ctn_lib:srvcond.obj
 0002:000053a4       ??_C@_0CB@OJDK@SRV?5Peer?5requested?5release?5in?5?$CFs@ 004783a4     ctn_lib:srvcond.obj
 0002:000053c8       ??_C@_0DB@FGMD@SRV?5Request?5for?5unsupported?5SOP?5@ 004783c8     ctn_lib:srvcond.obj
 0002:000053fc       ??_C@_0BP@JNMO@Normal?5return?5from?5SRV?5routine?$AA@ 004783fc     ctn_lib:srvcond.obj
 0002:0000541c       ??_C@_0DL@CGOJ@DCM?5attempt?5to?5add?5fragment?5with@ 0047841c     ctn_lib:dcmcond.obj
 0002:00005458       ??_C@_0BO@PNEC@DCM?5General?5warning?5in?5?$CFs?3?5?$CFs?$AA@ 00478458     ctn_lib:dcmcond.obj
 0002:00005478       ??_C@_0FG@GPAM@DCM?5Attempt?5to?5perform?5sequence?5@ 00478478     ctn_lib:dcmcond.obj
 0002:000054d0       ??_C@_0FD@NBMK@DCM?5Combination?5of?5offset?0?5lengt@ 004784d0     ctn_lib:dcmcond.obj
 0002:00005524       ??_C@_0DO@OLEG@DCM?5Offset?5value?5?$CI?$CFd?$CJ?5larger?5tha@ 00478524     ctn_lib:dcmcond.obj
 0002:00005564       ??_C@_0DK@KING@DCM?5Caller?8s?5export?5buffer?5lengt@ 00478564     ctn_lib:dcmcond.obj
 0002:000055a0       ??_C@_0DC@FFBD@DCM?5Incorrect?5VR?5?$CI?$CFs?$CJ?5for?5attrib@ 004785a0     ctn_lib:dcmcond.obj
 0002:000055d4       ??_C@_0CE@DOKO@DCM?5Unrecognized?5VR?5code?5?$CI?$CFs?$CJ?5in@ 004785d4     ctn_lib:dcmcond.obj
 0002:000055f8       ??_C@_0CA@OCLJ@DCM?5Failed?5to?5read?5stream?5in?5?$CFs?$AA@ 004785f8     ctn_lib:dcmcond.obj
 0002:00005618       ??_C@_0CD@PPDC@DCM?5Callback?5aborted?5by?5user?5in?5@ 00478618     ctn_lib:dcmcond.obj
 0002:0000563c       ??_C@_0DG@KPKG@DCM?5Bad?5element?5?$CI?$CF04x?5?$CF04x?$CJ?5foun@ 0047863c     ctn_lib:dcmcond.obj
 0002:00005674       ??_C@_0EA@NAFO@DCM?5Routine?5?$CFs?5expected?5?$CFs?5repre@ 00478674     ctn_lib:dcmcond.obj
 0002:000056b4       ??_C@_0CG@IDCD@DCM?5NULL?5address?5passed?5to?5routi@ 004786b4     ctn_lib:dcmcond.obj
 0002:000056dc       ??_C@_0CF@FLPD@DCM?5Failed?5to?5malloc?5?$CFld?5bytes?5i@ 004786dc     ctn_lib:dcmcond.obj
 0002:00005704       ??_C@_0CD@OC@DCM?5Failed?5to?5delete?5file?5?$CFs?5in?5@ 00478704     ctn_lib:dcmcond.obj
 0002:00005728       ??_C@_0EL@LMCB@DCM?5Cannot?5retrieve?5value?5of?5ele@ 00478728     ctn_lib:dcmcond.obj
 0002:00005774       ??_C@_0DD@DFGK@DCM?5failed?5to?5insert?5new?5element@ 00478774     ctn_lib:dcmcond.obj
 0002:000057a8       ??_C@_0BN@KLAM@DCM?5io?5error?5on?5file?5?$CFs?5?$CI?$CFs?$CJ?$AA@ 004787a8     ctn_lib:dcmcond.obj
 0002:000057c8       ??_C@_0CC@HMJF@DCM?5failed?5to?5create?5file?5?$CFs?5?$CI?$CFs@ 004787c8     ctn_lib:dcmcond.obj
 0002:000057ec       ??_C@_0CF@HFDM@Requested?5group?5?$CI?$CFx?$CJ?5not?5found?5i@ 004787ec     ctn_lib:dcmcond.obj
 0002:00005814       ??_C@_0GG@KNLJ@DCM?5Data?5Element?5?$CI?$CF04x?5?$CF04x?$CJ?5lon@ 00478814     ctn_lib:dcmcond.obj
 0002:0000587c       ??_C@_0EI@ECOK@DCM?5attempt?5to?5add?5data?5element?5@ 0047887c     ctn_lib:dcmcond.obj
 0002:000058c4       ??_C@_0EK@GBMJ@DCM?5Caller?5specified?5illegal?5rep@ 004788c4     ctn_lib:dcmcond.obj
 0002:00005910       ??_C@_0CA@IGJG@DCM?5Illegal?5context?5value?5in?5?$CFs?$AA@ 00478910     ctn_lib:dcmcond.obj
 0002:00005930       ??_C@_0CB@OKOM@DCM?5Get?5Element?5incomplete?5in?5?$CFs@ 00478930     ctn_lib:dcmcond.obj
 0002:00005954       ??_C@_0DA@CJBN@DCM?5attempt?5to?5add?5illegal?5eleme@ 00478954     ctn_lib:dcmcond.obj
 0002:00005984       ??_C@_0BO@DMJN@DCM?5illegal?5stream?5option?3?5?$CFs?$AA@ 00478984     ctn_lib:dcmcond.obj
 0002:000059a4       ??_C@_0CL@NCFL@DCM?5routine?5failed?5on?5list?5opera@ 004789a4     ctn_lib:dcmcond.obj
 0002:000059d0       ??_C@_0DB@NFMM@DCM?5group?1element?5out?5of?5order?5?$CI@ 004789d0     ctn_lib:dcmcond.obj
 0002:00005a04       ??_C@_0CM@FOLM@DCM?5unrecognized?5element?3?5?$CI?$CF04x?5@ 00478a04     ctn_lib:dcmcond.obj
 0002:00005a30       ??_C@_0CD@CPIE@DCM?5unrecognized?5group?3?5?$CF04x?5in?5@ 00478a30     ctn_lib:dcmcond.obj
 0002:00005a54       ??_C@_0DC@ONHB@DCM?5failed?5to?5create?5element?5in?5@ 00478a54     ctn_lib:dcmcond.obj
 0002:00005a88       ??_C@_0FB@NNKG@DCM?5Illegal?5Stream?5Length?5?$CI?$CFld?$CJ?5@ 00478a88     ctn_lib:dcmcond.obj
 0002:00005adc       ??_C@_0CK@HGFM@Requested?5element?5?$CI?$CFx?5?$CFx?$CJ?5not?5fo@ 00478adc     ctn_lib:dcmcond.obj
 0002:00005b08       ??_C@_0CE@IGPO@Illegal?5object?5passed?5to?5routine@ 00478b08     ctn_lib:dcmcond.obj
 0002:00005b2c       ??_C@_0CB@NOLG@NULL?5object?5passed?5to?5routine?5?$CFs@ 00478b2c     ctn_lib:dcmcond.obj
 0002:00005b50       ??_C@_0CC@ILHJ@DCM?5failed?5to?5create?5object?5in?5?$CF@ 00478b50     ctn_lib:dcmcond.obj
 0002:00005b74       ??_C@_0CE@JBJA@DCM?5failed?5to?5access?5file?3?5?$CFs?5in@ 00478b74     ctn_lib:dcmcond.obj
 0002:00005b98       ??_C@_0CC@KOMF@DCM?5failed?5to?5open?5file?3?5?$CFs?5in?5?$CF@ 00478b98     ctn_lib:dcmcond.obj
 0002:00005bbc       ??_C@_0BP@KDGA@Normal?5return?5from?5DCM?5routine?$AA@ 00478bbc     ctn_lib:dcmcond.obj
 0002:00005bdc       ??_C@_0M@NGNP@?$CF8x?5?$CF8d?5?$CFs?6?$AA@ 00478bdc     ctn_lib:dcmcond.obj
 0002:00005be8       ??_C@_05LGJH@Pixel?$AA@    00478be8     ctn_lib:dcmdict.obj
 0002:00005bf0       ??_C@_07PJFM@Overlay?$AA@  00478bf0     ctn_lib:dcmdict.obj
 0002:00005bf8       ??_C@_0L@JGMO@Functional?$AA@ 00478bf8     ctn_lib:dcmdict.obj
 0002:00005c04       ??_C@_05CFLF@Curve?$AA@    00478c04     ctn_lib:dcmdict.obj
 0002:00005c0c       ??_C@_07LIB@Results?$AA@   00478c0c     ctn_lib:dcmdict.obj
 0002:00005c14       ??_C@_04LLDK@300e?$AA@     00478c14     ctn_lib:dcmdict.obj
 0002:00005c1c       ??_C@_04EEEI@300c?$AA@     00478c1c     ctn_lib:dcmdict.obj
 0002:00005c24       ??_C@_04BBGG@300a?$AA@     00478c24     ctn_lib:dcmdict.obj
 0002:00005c2c       ??_C@_0O@FPMJ@Structure?5Set?$AA@ 00478c2c     ctn_lib:dcmdict.obj
 0002:00005c3c       ??_C@_0BG@CDCC@Dose?5Volume?5Histogram?$AA@ 00478c3c     ctn_lib:dcmdict.obj
 0002:00005c54       ??_C@_02ELLF@RT?$AA@       00478c54     ctn_lib:dcmdict.obj
 0002:00005c58       ??_C@_07NAPB@Printer?$AA@  00478c58     ctn_lib:dcmdict.obj
 0002:00005c60       ??_C@_09BGNE@Print?5Job?$AA@ 00478c60     ctn_lib:dcmdict.obj
 0002:00005c6c       ??_C@_0BB@IMAA@Presentation?5LUT?$AA@ 00478c6c     ctn_lib:dcmdict.obj
 0002:00005c80       ??_C@_0BI@HLJN@Basic?5Image?5Overlay?5Box?$AA@ 00478c80     ctn_lib:dcmdict.obj
 0002:00005c98       ??_C@_0BF@LBKJ@Basic?5Annotation?5Box?$AA@ 00478c98     ctn_lib:dcmdict.obj
 0002:00005cb0       ??_C@_0BA@PPGF@Basic?5Image?5Box?$AA@ 00478cb0     ctn_lib:dcmdict.obj
 0002:00005cc0       ??_C@_0P@PGMC@Basic?5Film?5Box?$AA@ 00478cc0     ctn_lib:dcmdict.obj
 0002:00005cd0       ??_C@_0BD@NDJ@Basic?5Film?5Session?$AA@ 00478cd0     ctn_lib:dcmdict.obj
 0002:00005ce4       ??_C@_05GIII@Media?$AA@    00478ce4     ctn_lib:dcmdict.obj
 0002:00005cec       ??_C@_0L@JNJO@Procedures?$AA@ 00478cec     ctn_lib:dcmdict.obj
 0002:00005cf8       ??_C@_08ECKN@Graphics?$AA@ 00478cf8     ctn_lib:dcmdict.obj
 0002:00005d04       ??_C@_08LLAC@NM?5Image?$AA@ 00478d04     ctn_lib:dcmdict.obj
 0002:00005d10       ??_C@_06NBPC@Device?$AA@   00478d10     ctn_lib:dcmdict.obj
 0002:00005d18       ??_C@_09FKLF@Documents?$AA@ 00478d18     ctn_lib:dcmdict.obj
 0002:00005d24       ??_C@_0P@EMIA@Procedure?5Step?$AA@ 00478d24     ctn_lib:dcmdict.obj
 0002:00005d34       ??_C@_08KNJF@Waveform?$AA@ 00478d34     ctn_lib:dcmdict.obj
 0002:00005d40       ??_C@_05CPA@Visit?$AA@     00478d40     ctn_lib:dcmdict.obj
 0002:00005d48       ??_C@_05KMLL@Study?$AA@    00478d48     ctn_lib:dcmdict.obj
 0002:00005d50       ??_C@_05LADG@Image?$AA@    00478d50     ctn_lib:dcmdict.obj
 0002:00005d58       ??_C@_0N@FIME@Relationship?$AA@ 00478d58     ctn_lib:dcmdict.obj
 0002:00005d68       ??_C@_0M@HNLI@Acquisition?$AA@ 00478d68     ctn_lib:dcmdict.obj
 0002:00005d74       ??_C@_0P@HAJJ@Clinical?5Trial?$AA@ 00478d74     ctn_lib:dcmdict.obj
 0002:00005d84       ??_C@_0BE@HN@Patient?5Information?$AA@ 00478d84     ctn_lib:dcmdict.obj
 0002:00005d98       ??_C@_0M@HGGN@Identifying?$AA@ 00478d98     ctn_lib:dcmdict.obj
 0002:00005da4       ??_C@_0BM@NKDJ@Basic?5Directory?5Information?$AA@ 00478da4     ctn_lib:dcmdict.obj
 0002:00005dc0       ??_C@_09LLEJ@File?5Meta?$AA@ 00478dc0     ctn_lib:dcmdict.obj
 0002:00005dcc       ??_C@_07HCNK@Command?$AA@  00478dcc     ctn_lib:dcmdict.obj
 0002:00005dd4       ??_C@_0BC@FHKF@DCM_LookupElement?$AA@ 00478dd4     ctn_lib:dcmdict.obj
 0002:00005de8       ??_C@_0BF@NOHH@Unknown?5group?5length?$AA@ 00478de8     ctn_lib:dcmdict.obj
 0002:00005e00       ??_C@_0BB@LIFE@DCM_ListToString?$AA@ 00478e00     ctn_lib:dcmsupport.obj
 0002:00005e14       ??_C@_0CA@MMEK@UID?5Could?5not?5find?5UID?5?$CFs?5in?5?$CFs?$AA@ 00478e14     ctn_lib:uidcond.obj
 0002:00005e34       ??_C@_0CJ@EEID@UID?5No?5root?5value?5specified?5in?5f@ 00478e34     ctn_lib:uidcond.obj
 0002:00005e60       ??_C@_0CK@LJED@UID?5No?5device?5type?5specified?5in?5@ 00478e60     ctn_lib:uidcond.obj
 0002:00005e8c       ??_C@_0CA@GPJO@UID?5Illegal?5numeric?5in?5line?3?5?$CFs?$AA@ 00478e8c     ctn_lib:uidcond.obj
 0002:00005eac       ??_C@_0BN@ECDA@UID?5Illegal?5root?5in?5line?3?5?$CFs?$AA@ 00478eac     ctn_lib:uidcond.obj
 0002:00005ecc       ??_C@_0CJ@BNPD@UID?5Failed?5to?5create?5file?5?$CI?$CFs?$CJ?5f@ 00478ecc     ctn_lib:uidcond.obj
 0002:00005ef8       ??_C@_0CG@DBHG@UID?5Failed?5to?5open?5file?5?$CI?$CFs?$CJ?5for@ 00478ef8     ctn_lib:uidcond.obj
 0002:00005f20       ??_C@_0CK@CMBD@UID?5Failed?5to?5generate?5a?5uniqe?5i@ 00478f20     ctn_lib:uidcond.obj
 0002:00005f4c       ??_C@_0CO@JPNF@UID?5No?5environment?5variable?5?$CIUID@ 00478f4c     ctn_lib:uidcond.obj
 0002:00005f7c       ??_C@_0CD@INDG@UID?5Normal?5return?5from?5UID?5routi@ 00478f7c     ctn_lib:uidcond.obj
 0002:00005fa0       ??_C@_08PKDM@MSG_Free?$AA@ 00478fa0     ctn_lib:messages.obj
 0002:00005fac       ??_C@_0BB@MGOC@MSG_BuildCommand?$AA@ 00478fac     ctn_lib:messages.obj
 0002:00005fc0       ??_C@_0BB@OCDJ@MSG_ParseCommand?$AA@ 00478fc0     ctn_lib:messages.obj
 0002:00005fd4       ??_C@_0BB@PFGL@MSG_StatusLookup?$AA@ 00478fd4     ctn_lib:messages.obj
 0002:00005fe8       ??_C@_0M@FJAP@buildObject?$AA@ 00478fe8     ctn_lib:messages.obj
 0002:00005ff4       ??_C@_0N@EHML@parseCommand?$AA@ 00478ff4     ctn_lib:messages.obj
 0002:00006004       ??_C@_0BI@FCM@Command?5received?3?5?$CF04x?6?$AA@ 00479004     ctn_lib:srv2.obj
 0002:0000601c       ??_C@_04EGOH@Data?$AA@     0047901c     ctn_lib:srv2.obj
 0002:00006024       ??_C@_0BD@KDIP@SRV_ReceiveCommand?$AA@ 00479024     ctn_lib:srv2.obj
 0002:00006038       ??_C@_0CB@KHOL@Beginning?5to?5read?5a?5COMMAND?5PDV?6@ 00479038     ctn_lib:srv2.obj
 0002:0000605c       ??_C@_0BF@KMAA@?1ctn_bad_dataset?4dcm?$AA@ 0047905c     ctn_lib:srv2.obj
 0002:00006074       ??_C@_0BD@EGGN@SRV_ReceiveDataSet?$AA@ 00479074     ctn_lib:srv2.obj
 0002:00006088       ??_C@_0BB@HGDO@DUL?5Error?3?5?$CF08x?6?$AA@ 00479088     ctn_lib:srv2.obj
 0002:0000609c       ??_C@_0BD@EKLH@SRVPRV_ReadNextPDV?$AA@ 0047909c     ctn_lib:srv2.obj
 0002:000060b0       ??_C@_0L@MILN@createFile?$AA@ 004790b0     ctn_lib:srv2.obj
 0002:000060bc       ??_C@_0L@CKFN@?$CFs?1?$CF?9d?4?$CF?9d?$AA@ 004790bc     ctn_lib:srv2.obj
 0002:000060c8       ??_C@_0N@JPAE@enqueCommand?$AA@ 004790c8     ctn_lib:srv2.obj
 0002:000060d8       ??_C@_07KNFB@COMMAND?$AA@  004790d8     ctn_lib:send.obj
 0002:000060e0       ??_C@_0BA@GAHI@SRV_SendCommand?$AA@ 004790e0     ctn_lib:send.obj
 0002:000060f0       ??_C@_0DA@OAOK@Unexepected?5condition?5after?5expo@ 004790f0     ctn_lib:send.obj
 0002:00006120       ??_C@_08NFOI@DATA?5SET?$AA@ 00479120     ctn_lib:send.obj
 0002:0000612c       ??_C@_08HHEH@data?5set?$AA@ 0047912c     ctn_lib:send.obj
 0002:00006138       ??_C@_0BA@IFJK@SRV_SendDataSet?$AA@ 00479138     ctn_lib:send.obj
 0002:00006148       ??_C@_07CAMD@unknown?$AA@  00479148     ctn_lib:send.obj
 0002:00006150       ??_C@_0O@JLIP@writeCallback?$AA@ 00479150     ctn_lib:send.obj
 0002:00006160       ??_C@_0BA@LNMA@DCM_GetFileMeta?$AA@ 00479160     ctn_lib:dcm1.obj
 0002:00006170       ??_C@_0CB@OMAK@MSG?5Mutex?5operation?5failed?5in?5?$CFs@ 00479170     ctn_lib:msgcond.obj
 0002:00006194       ??_C@_0CH@GFLG@MSG?5Status?5Code?5?$CI?$CF04x?$CJ?5not?5found@ 00479194     ctn_lib:msgcond.obj
 0002:000061bc       ??_C@_0BH@LCCM@MSG?5List?5failure?5in?5?$CFs?$AA@ 004791bc     ctn_lib:msgcond.obj
 0002:000061d4       ??_C@_0DC@MKOH@MSG?5Failed?5to?5modify?5DCM?5Informa@ 004791d4     ctn_lib:msgcond.obj
 0002:00006208       ??_C@_0DC@DKHC@MSG?5Failed?5to?5create?5DCM?5Informa@ 00479208     ctn_lib:msgcond.obj
 0002:0000623c       ??_C@_0DN@MIGH@MSG?5Failed?5to?5access?5DCM?5Informa@ 0047923c     ctn_lib:msgcond.obj
 0002:0000627c       ??_C@_0CJ@GKMD@MSG?5Failed?5to?5parse?5object?5of?5ty@ 0047927c     ctn_lib:msgcond.obj
 0002:000062a8       ??_C@_0CM@BGPG@MSG?5Failed?5to?5malloc?5?$CFd?5bytes?5in@ 004792a8     ctn_lib:msgcond.obj
 0002:000062d4       ??_C@_0DN@GO@MSG?5DICOM?5command?5not?5supported?5@ 004792d4     ctn_lib:msgcond.obj
 0002:00006314       ??_C@_0DI@MHKI@MSG?5COMMAND?5element?5missing?5in?5I@ 00479314     ctn_lib:msgcond.obj
 0002:0000634c       ??_C@_0CM@NBFK@MSG?5Illegal?5message?5type?5?$CI?$CFd?$CJ?5in@ 0047934c     ctn_lib:msgcond.obj
 0002:00006378       ??_C@_0DA@IHOK@MSG?5Zero?5Length?5SOP?5Instance?5UID@ 00479378     ctn_lib:msgcond.obj
 0002:000063a8       ??_C@_0CJ@HHMM@MSG?5Zero?5Length?5Class?5UID?5in?5rou@ 004793a8     ctn_lib:msgcond.obj
 0002:000063d4       ??_C@_0CD@HPAI@MSG?5Normal?5return?5from?5MSG?5routi@ 004793d4     ctn_lib:msgcond.obj
 0002:000063f8       ??_C@_0P@LNLA@format?5?$CB?$DN?5NULL?$AA@ 004793f8     LIBCMTD:sprintf.obj
 0002:00006408       ??_C@_09NEAG@sprintf?4c?$AA@ 00479408     LIBCMTD:sprintf.obj
 0002:00006414       ??_C@_0P@OOIN@string?5?$CB?$DN?5NULL?$AA@ 00479414     LIBCMTD:sprintf.obj
 0002:00006424       ??_C@_08EJDA@sscanf?4c?$AA@ 00479424     LIBCMTD:sscanf.obj
 0002:00006430       ??_C@_06DPMO@Client?$AA@   00479430     LIBCMTD:dbgheap.obj
 0002:00006438       ??_C@_06BAFM@Ignore?$AA@   00479438     LIBCMTD:dbgheap.obj
 0002:00006440       ??_C@_03DICE@CRT?$AA@      00479440     LIBCMTD:dbgheap.obj
 0002:00006444       ??_C@_06BILL@Normal?$AA@   00479444     LIBCMTD:dbgheap.obj
 0002:0000644c       ??_C@_04NEN@Free?$AA@      0047944c     LIBCMTD:dbgheap.obj
 0002:00006464       ??_C@_0DC@CGID@Error?3?5memory?5allocation?3?5bad?5me@ 00479464     LIBCMTD:dbgheap.obj
 0002:00006498       ??_C@_0CE@FMIA@Invalid?5allocation?5size?3?5?$CFu?5byte@ 00479498     LIBCMTD:dbgheap.obj
 0002:000064bc       ??_C@_0CB@CPBI@Client?5hook?5allocation?5failure?4?6@ 004794bc     LIBCMTD:dbgheap.obj
 0002:000064e0       ??_C@_0DF@DKHF@Client?5hook?5allocation?5failure?5a@ 004794e0     LIBCMTD:dbgheap.obj
 0002:00006518       ??_C@_09IMJC@dbgheap?4c?$AA@ 00479518     LIBCMTD:dbgheap.obj
 0002:00006524       ??_C@_0BC@EPKL@_CrtCheckMemory?$CI?$CJ?$AA@ 00479524     LIBCMTD:dbgheap.obj
 0002:00006544       ??_C@_0BK@JDHA@_pFirstBlock?5?$DN?$DN?5pOldBlock?$AA@ 00479544     LIBCMTD:dbgheap.obj
 0002:00006560       ??_C@_0BJ@NMEF@_pLastBlock?5?$DN?$DN?5pOldBlock?$AA@ 00479560     LIBCMTD:dbgheap.obj
 0002:0000657c       ??_C@_0DC@BOCN@fRealloc?5?$HM?$HM?5?$CI?$CBfRealloc?5?$CG?$CG?5pNewBl@ 0047957c     LIBCMTD:dbgheap.obj
 0002:000065b0       ??_C@_0DK@DKOM@_BLOCK_TYPE?$CIpOldBlock?9?$DOnBlockUse@ 004795b0     LIBCMTD:dbgheap.obj
 0002:000065ec       ??_C@_0EF@EDKM@pOldBlock?9?$DOnLine?5?$DN?$DN?5IGNORE_LINE?5@ 004795ec     LIBCMTD:dbgheap.obj
 0002:00006634       ??_C@_0CC@GPMO@_CrtIsValidHeapPointer?$CIpUserData@ 00479634     LIBCMTD:dbgheap.obj
 0002:00006658       ??_C@_0CN@FHGE@Allocation?5too?5large?5or?5negative@ 00479658     LIBCMTD:dbgheap.obj
 0002:00006688       ??_C@_0CE@EAMN@Client?5hook?5re?9allocation?5failur@ 00479688     LIBCMTD:dbgheap.obj
 0002:000066ac       ??_C@_0DI@KKMM@Client?5hook?5re?9allocation?5failur@ 004796ac     LIBCMTD:dbgheap.obj
 0002:00006704       ??_C@_0BG@JCEC@_pFirstBlock?5?$DN?$DN?5pHead?$AA@ 00479704     LIBCMTD:dbgheap.obj
 0002:0000671c       ??_C@_0BF@NLNN@_pLastBlock?5?$DN?$DN?5pHead?$AA@ 0047971c     LIBCMTD:dbgheap.obj
 0002:00006734       ??_C@_0BO@PLHH@pHead?9?$DOnBlockUse?5?$DN?$DN?5nBlockUse?$AA@ 00479734     LIBCMTD:dbgheap.obj
 0002:00006754       ??_C@_0DN@KKIO@pHead?9?$DOnLine?5?$DN?$DN?5IGNORE_LINE?5?$CG?$CG?5p@ 00479754     LIBCMTD:dbgheap.obj
 0002:00006794       ??_C@_0CK@OJNB@DAMAGE?3?5after?5?$CFhs?5block?5?$CI?$CD?$CFd?$CJ?5at@ 00479794     LIBCMTD:dbgheap.obj
 0002:000067c0       ??_C@_0CL@IJIL@DAMAGE?3?5before?5?$CFhs?5block?5?$CI?$CD?$CFd?$CJ?5a@ 004797c0     LIBCMTD:dbgheap.obj
 0002:000067ec       ??_C@_0CH@PHOC@_BLOCK_TYPE_IS_VALID?$CIpHead?9?$DOnBlo@ 004797ec     LIBCMTD:dbgheap.obj
 0002:00006814       ??_C@_0BL@MBNA@Client?5hook?5free?5failure?4?6?$AA@ 00479814     LIBCMTD:dbgheap.obj
 0002:0000684c       ??_C@_0DK@EKKL@memory?5check?5error?5at?50x?$CF08X?5?$DN?50@ 0047984c     LIBCMTD:dbgheap.obj
 0002:00006888       ??_C@_0CJ@GCII@?$CFhs?5located?5at?50x?$CF08X?5is?5?$CFu?5byte@ 00479888     LIBCMTD:dbgheap.obj
 0002:000068b4       ??_C@_0CA@EJPI@?$CFhs?5allocated?5at?5file?5?$CFhs?$CI?$CFd?$CJ?4?6?$AA@ 004798b4     LIBCMTD:dbgheap.obj
 0002:000068d4       ??_C@_0CJ@LHHG@DAMAGE?3?5on?5top?5of?5Free?5block?5at?5@ 004798d4     LIBCMTD:dbgheap.obj
 0002:00006900       ??_C@_07GJHM@DAMAGED?$AA@  00479900     LIBCMTD:dbgheap.obj
 0002:00006908       ??_C@_0CL@ODIE@_heapchk?5fails?5with?5unknown?5retu@ 00479908     LIBCMTD:dbgheap.obj
 0002:00006934       ??_C@_0CC@EHNC@_heapchk?5fails?5with?5_HEAPBADPTR?4@ 00479934     LIBCMTD:dbgheap.obj
 0002:00006958       ??_C@_0CC@JNDP@_heapchk?5fails?5with?5_HEAPBADEND?4@ 00479958     LIBCMTD:dbgheap.obj
 0002:0000697c       ??_C@_0CD@DNMG@_heapchk?5fails?5with?5_HEAPBADNODE@ 0047997c     LIBCMTD:dbgheap.obj
 0002:000069a0       ??_C@_0CE@JMCB@_heapchk?5fails?5with?5_HEAPBADBEGI@ 004799a0     LIBCMTD:dbgheap.obj
 0002:000069f4       ??_C@_0CD@MEMI@Bad?5memory?5block?5found?5at?50x?$CF08X@ 004799f4     LIBCMTD:dbgheap.obj
 0002:00006a18       ??_C@_0CI@GMAO@_CrtMemCheckPoint?3?5NULL?5state?5po@ 00479a18     LIBCMTD:dbgheap.obj
 0002:00006a4c       ??_C@_0CI@MNAE@_CrtMemDifference?3?5NULL?5state?5po@ 00479a4c     LIBCMTD:dbgheap.obj
 0002:00006a74       ??_C@_0BH@PKIJ@Object?5dump?5complete?4?6?$AA@ 00479a74     LIBCMTD:dbgheap.obj
 0002:00006a8c       ??_C@_0DB@DBPF@crt?5block?5at?50x?$CF08X?0?5subtype?5?$CFx?0@ 00479a8c     LIBCMTD:dbgheap.obj
 0002:00006ac0       ??_C@_0CI@JLM@normal?5block?5at?50x?$CF08X?0?5?$CFu?5bytes@ 00479ac0     LIBCMTD:dbgheap.obj
 0002:00006ae8       ??_C@_0DE@PFEA@client?5block?5at?50x?$CF08X?0?5subtype?5@ 00479ae8     LIBCMTD:dbgheap.obj
 0002:00006b1c       ??_C@_06MBCE@?$HL?$CFld?$HN?5?$AA@ 00479b1c     LIBCMTD:dbgheap.obj
 0002:00006b24       ??_C@_0L@BLDJ@?$CFhs?$CI?$CFd?$CJ?5?3?5?$AA@ 00479b24     LIBCMTD:dbgheap.obj
 0002:00006b30       ??_C@_0BE@FEMA@?$CDFile?5Error?$CD?$CI?$CFd?$CJ?5?3?5?$AA@ 00479b30     LIBCMTD:dbgheap.obj
 0002:00006b44       ??_C@_0BE@FPPM@Dumping?5objects?5?9?$DO?6?$AA@ 00479b44     LIBCMTD:dbgheap.obj
 0002:00006b64       ??_C@_0BA@POLM@?5Data?3?5?$DM?$CFs?$DO?5?$CFs?6?$AA@ 00479b64     LIBCMTD:dbgheap.obj
 0002:00006b74       ??_C@_05JLAO@?$CF?42X?5?$AA@ 00479b74     LIBCMTD:dbgheap.obj
 0002:00006b7c       ??_C@_0BI@KONA@Detected?5memory?5leaks?$CB?6?$AA@ 00479b7c     LIBCMTD:dbgheap.obj
 0002:00006b94       ??_C@_0BP@LCCN@Total?5allocations?3?5?$CFld?5bytes?4?6?$AA@ 00479b94     LIBCMTD:dbgheap.obj
 0002:00006bb4       ??_C@_0CB@COID@Largest?5number?5used?3?5?$CFld?5bytes?4?6@ 00479bb4     LIBCMTD:dbgheap.obj
 0002:00006bd8       ??_C@_0BO@MEJD@?$CFld?5bytes?5in?5?$CFld?5?$CFhs?5Blocks?4?6?$AA@ 00479bd8     LIBCMTD:dbgheap.obj
 0002:00006bf8       ??_C@_08GNFC@printf?4c?$AA@ 00479bf8     LIBCMTD:printf.obj
 0002:00006c04       ??_C@_09DLOM@fprintf?4c?$AA@ 00479c04     LIBCMTD:fprintf.obj
 0002:00006c10       ??_C@_0M@KJPK@str?5?$CB?$DN?5NULL?$AA@ 00479c10     LIBCMTD:fprintf.obj
 0002:00006c1c       ??_C@_07HPAH@_file?4c?$AA@ 00479c1c     LIBCMTD:_file.obj
 0002:00006c34       ??_C@_0O@FHMD@i386?2chkesp?4c?$AA@ 00479c34     LIBCMTD:chkesp.obj
 0002:00006c44       ??_C@_0NM@ELEE@The?5value?5of?5ESP?5was?5not?5properl@ 00479c44     LIBCMTD:chkesp.obj
 0002:00006d20       ??_C@_02HFBK@?3?5?$AA@     00479d20     LIBCMTD:perror.obj
 0002:00006d24       ??_C@_04GGNP@?4com?$AA@    00479d24     LIBCMTD:stat.obj
 0002:00006d2c       ??_C@_04KBDN@?4bat?$AA@    00479d2c     LIBCMTD:stat.obj
 0002:00006d34       ??_C@_04LFKF@?4cmd?$AA@    00479d34     LIBCMTD:stat.obj
 0002:00006d3c       ??_C@_04NFOM@?4exe?$AA@    00479d3c     LIBCMTD:stat.obj
 0002:00006d44       ??_C@_03MNBA@?4?1?2?$AA@   00479d44     LIBCMTD:stat.obj
 0002:00006d48       ??_C@_02DIIM@?$DP?$CK?$AA@ 00479d48     LIBCMTD:stat.obj
 0002:00006d4c       ??_C@_08PHBD@fclose?4c?$AA@ 00479d4c     LIBCMTD:fclose.obj
 0002:00006d58       ??_C@_0P@FHEA@stream?5?$CB?$DN?5NULL?$AA@ 00479d58     LIBCMTD:fclose.obj
 0002:00006d68       ??_C@_07LIGC@fgets?4c?$AA@ 00479d68     LIBCMTD:fgets.obj
 0002:00006d70       ??_C@_0BC@IPFL@?$CKmode?5?$CB?$DN?5_T?$CI?8?20?8?$CJ?$AA@ 00479d70     LIBCMTD:fopen.obj
 0002:00006d84       ??_C@_0N@BKPP@mode?5?$CB?$DN?5NULL?$AA@ 00479d84     LIBCMTD:fopen.obj
 0002:00006d94       ??_C@_0BC@GOED@?$CKfile?5?$CB?$DN?5_T?$CI?8?20?8?$CJ?$AA@ 00479d94     LIBCMTD:fopen.obj
 0002:00006da8       ??_C@_07OMGG@fopen?4c?$AA@ 00479da8     LIBCMTD:fopen.obj
 0002:00006db0       ??_C@_0N@MCKG@file?5?$CB?$DN?5NULL?$AA@ 00479db0     LIBCMTD:fopen.obj
 0002:00006dc0       ??_C@_0L@PMNG@strerror?4c?$AA@ 00479dc0     LIBCMTD:strerror.obj
 0002:00006dcc       ??_C@_0L@HE@vsprintf?4c?$AA@ 00479dcc     LIBCMTD:vsprintf.obj
 0002:00006dd8       ??_C@_0DP@IHIN@?$CI?$CCinconsistent?5IOB?5fields?$CC?0?5stre@ 00479dd8     LIBCMTD:_flsbuf.obj
 0002:00006e18       ??_C@_09LGEI@_flsbuf?4c?$AA@ 00479e18     LIBCMTD:_flsbuf.obj
 0002:00006e24       ___lookuptable             00479e24     LIBCMTD:output.obj
 0002:00006e80       ??_C@_1O@POHA@?$AA?$CI?$AAn?$AAu?$AAl?$AAl?$AA?$CJ?$AA?$AA@ 00479e80     LIBCMTD:output.obj
 0002:00006e90       ??_C@_06ONKE@?$CInull?$CJ?$AA@ 00479e90     LIBCMTD:output.obj
 0002:00006e98       ??_C@_08MIHI@output?4c?$AA@ 00479e98     LIBCMTD:output.obj
 0002:00006ea4       ??_C@_0P@PIHB@ch?5?$CB?$DN?5_T?$CI?8?20?8?$CJ?$AA@ 00479ea4     LIBCMTD:output.obj
 0002:00006eb4       ??_C@_0BB@BLL@Assertion?5Failed?$AA@ 00479eb4     LIBCMTD:dbgrpt.obj
 0002:00006ec8       ??_C@_05CKBG@Error?$AA@    00479ec8     LIBCMTD:dbgrpt.obj
 0002:00006ed0       ??_C@_07JCGI@Warning?$AA@  00479ed0     LIBCMTD:dbgrpt.obj
 0002:00006ed8       ??_C@_0M@ODEP@?$CFs?$CI?$CFd?$CJ?5?3?5?$CFs?$AA@ 00479ed8     LIBCMTD:dbgrpt.obj
 0002:00006ee4       ??_C@_01FEHD@?$AN?$AA@     00479ee4     LIBCMTD:dbgrpt.obj
 0002:00006ee8       ??_C@_0BC@OIMC@Assertion?5failed?$CB?$AA@ 00479ee8     LIBCMTD:dbgrpt.obj
 0002:00006efc       ??_C@_0BD@BEAK@Assertion?5failed?3?5?$AA@ 00479efc     LIBCMTD:dbgrpt.obj
 0002:00006f10       ??_C@_0CL@LCCP@_CrtDbgReport?3?5String?5too?5long?5o@ 00479f10     LIBCMTD:dbgrpt.obj
 0002:00006f3c       ??_C@_0DC@EMDK@Second?5Chance?5Assertion?5Failed?3?5@ 00479f3c     LIBCMTD:dbgrpt.obj
 0002:00006f70       ??_C@_09NJAK@wsprintfA?$AA@ 00479f70     LIBCMTD:dbgrpt.obj
 0002:00006f7c       ??_C@_0L@HKL@user32?4dll?$AA@ 00479f7c     LIBCMTD:dbgrpt.obj
 0002:00006f88       ??_C@_0CD@GCMD@Microsoft?5Visual?5C?$CL?$CL?5Debug?5Libra@ 00479f88     LIBCMTD:dbgrpt.obj
 0002:00006fac       ??_C@_0FD@EBDD@Debug?5?$CFs?$CB?6?6Program?3?5?$CFs?$CFs?$CFs?$CFs?$CFs?$CFs@ 00479fac     LIBCMTD:dbgrpt.obj
 0002:00007000       ??_C@_09DCKN@?6Module?3?5?$AA@ 0047a000     LIBCMTD:dbgrpt.obj
 0002:0000700c       ??_C@_07HJII@?6File?3?5?$AA@ 0047a00c     LIBCMTD:dbgrpt.obj
 0002:00007014       ??_C@_07LFGN@?6Line?3?5?$AA@ 0047a014     LIBCMTD:dbgrpt.obj
 0002:0000701c       ??_C@_02JJJH@?6?6?$AA@     0047a01c     LIBCMTD:dbgrpt.obj
 0002:00007020       ??_C@_0N@NOAB@Expression?3?5?$AA@ 0047a020     LIBCMTD:dbgrpt.obj
 0002:00007030       ??_C@_0HD@BHFH@?6?6For?5information?5on?5how?5your?5pr@ 0047a030     LIBCMTD:dbgrpt.obj
 0002:000070a4       ??_C@_03NAME@?4?4?4?$AA@   0047a0a4     LIBCMTD:dbgrpt.obj
 0002:000070a8       ??_C@_0BH@NNCD@?$DMprogram?5name?5unknown?$DO?$AA@ 0047a0a8     LIBCMTD:dbgrpt.obj
 0002:000070c0       ??_C@_08GFHP@dbgrpt?4c?$AA@ 0047a0c0     LIBCMTD:dbgrpt.obj
 0002:000070cc       ??_C@_0BG@FBEA@szUserMessage?5?$CB?$DN?5NULL?$AA@ 0047a0cc     LIBCMTD:dbgrpt.obj
 0002:000070e4       ??_C@_07IEFA@input?4c?$AA@ 0047a0e4     LIBCMTD:input.obj
 0002:000070ec       ??_C@_07PDLA@mlock?4c?$AA@ 0047a0ec     LIBCMTD:mlock.obj
 0002:00007170       ??_C@_0BH@PHHF@__GLOBAL_HEAP_SELECTED?$AA@ 0047a170     LIBCMTD:heapinit.obj
 0002:00007188       ??_C@_0BF@BBGL@__MSVCRT_HEAP_SELECT?$AA@ 0047a188     LIBCMTD:heapinit.obj
 0002:000071a0       ??_C@_09JNND@_sftbuf?4c?$AA@ 0047a1a0     LIBCMTD:_sftbuf.obj
 0002:000071ac       ??_C@_0BH@EOPG@flag?5?$DN?$DN?50?5?$HM?$HM?5flag?5?$DN?$DN?51?$AA@ 0047a1ac     LIBCMTD:_sftbuf.obj
 0002:000071c8       __real@8@3fff8000000000000000 0047a1c8     LIBCMTD:testfdiv.obj
 0002:000071d0       ??_C@_0BK@JEGK@IsProcessorFeaturePresent?$AA@ 0047a1d0     LIBCMTD:testfdiv.obj
 0002:000071ec       ??_C@_08OBID@KERNEL32?$AA@ 0047a1ec     LIBCMTD:testfdiv.obj
 0002:000071f8       __real@8@00000000000000000000 0047a1f8     LIBCMTD:cvt.obj
 0002:00007200       ??_C@_05OFLO@e?$CL000?$AA@ 0047a200     LIBCMTD:cvt.obj
 0002:00007208       ??_C@_08KFDJ@ioinit?4c?$AA@ 0047a208     LIBCMTD:ioinit.obj
 0002:00007214       ??_C@_09IGKD@stdenvp?4c?$AA@ 0047a214     LIBCMTD:stdenvp.obj
 0002:00007220       ??_C@_09MPMN@stdargv?4c?$AA@ 0047a220     LIBCMTD:stdargv.obj
 0002:0000722c       ??_C@_07BNNE@a_env?4c?$AA@ 0047a22c     LIBCMTD:a_env.obj
 0002:00007234       ??_C@_0L@ENLJ@tidtable?4c?$AA@ 0047a234     LIBCMTD:tidtable.obj
 0002:00007240       ??_C@_0P@GGKG@runtime?5error?5?$AA@ 0047a240     LIBCMTD:crt0msg.obj
 0002:00007250       ??_C@_02PIMC@?$AN?6?$AA@   0047a250     LIBCMTD:crt0msg.obj
 0002:00007254       ??_C@_0O@DELO@TLOSS?5error?$AN?6?$AA@ 0047a254     LIBCMTD:crt0msg.obj
 0002:00007264       ??_C@_0N@OMLL@SING?5error?$AN?6?$AA@ 0047a264     LIBCMTD:crt0msg.obj
 0002:00007274       ??_C@_0P@OJAK@DOMAIN?5error?$AN?6?$AA@ 0047a274     LIBCMTD:crt0msg.obj
 0002:00007284       ??_C@_0CF@EANP@R6028?$AN?6?9?5unable?5to?5initialize?5he@ 0047a284     LIBCMTD:crt0msg.obj
 0002:000072ac       ??_C@_0DF@ECGN@R6027?$AN?6?9?5not?5enough?5space?5for?5lo@ 0047a2ac     LIBCMTD:crt0msg.obj
 0002:000072e4       ??_C@_0DF@FKAC@R6026?$AN?6?9?5not?5enough?5space?5for?5st@ 0047a2e4     LIBCMTD:crt0msg.obj
 0002:0000731c       ??_C@_0CG@DPMN@R6025?$AN?6?9?5pure?5virtual?5function?5c@ 0047a31c     LIBCMTD:crt0msg.obj
 0002:00007344       ??_C@_0DF@CKIP@R6024?$AN?6?9?5not?5enough?5space?5for?5_o@ 0047a344     LIBCMTD:crt0msg.obj
 0002:0000737c       ??_C@_0CJ@GGOE@R6019?$AN?6?9?5unable?5to?5open?5console?5@ 0047a37c     LIBCMTD:crt0msg.obj
 0002:000073a8       ??_C@_0CB@LBOB@R6018?$AN?6?9?5unexpected?5heap?5error?$AN?6@ 0047a3a8     LIBCMTD:crt0msg.obj
 0002:000073cc       ??_C@_0CN@FPEG@R6017?$AN?6?9?5unexpected?5multithread?5@ 0047a3cc     LIBCMTD:crt0msg.obj
 0002:000073fc       ??_C@_0CM@OBIC@R6016?$AN?6?9?5not?5enough?5space?5for?5th@ 0047a3fc     LIBCMTD:crt0msg.obj
 0002:00007428       ??_C@_0CB@HPAL@?$AN?6abnormal?5program?5termination?$AN?6@ 0047a428     LIBCMTD:crt0msg.obj
 0002:0000744c       ??_C@_0CM@JOOB@R6009?$AN?6?9?5not?5enough?5space?5for?5en@ 0047a44c     LIBCMTD:crt0msg.obj
 0002:00007478       ??_C@_0CK@OIBL@R6008?$AN?6?9?5not?5enough?5space?5for?5ar@ 0047a478     LIBCMTD:crt0msg.obj
 0002:000074a4       ??_C@_0CF@LKPB@R6002?$AN?6?9?5floating?5point?5not?5load@ 0047a4a4     LIBCMTD:crt0msg.obj
 0002:000074cc       ??_C@_0CF@JPDF@Microsoft?5Visual?5C?$CL?$CL?5Runtime?5Lib@ 0047a4cc     LIBCMTD:crt0msg.obj
 0002:000074f4       ??_C@_0BK@DEOK@Runtime?5Error?$CB?6?6Program?3?5?$AA@ 0047a4f4     LIBCMTD:crt0msg.obj
 0002:00007510       ??_C@_01A@?$AA?$AA@        0047a510     LIBCMTD:a_str.obj
 0002:00007514       ??_C@_13A@?$AA?$AA?$AA?$AA@ 0047a514     LIBCMTD:a_str.obj
 0002:00007524       ___dnames                  0047a524     LIBCMTD:timeset.obj
 0002:0000753c       ___mnames                  0047a53c     LIBCMTD:timeset.obj
 0002:00007564       ??_C@_07DEKI@tzset?4c?$AA@ 0047a564     LIBCMTD:tzset.obj
 0002:0000756c       ??_C@_02JHIA@TZ?$AA@       0047a56c     LIBCMTD:tzset.obj
 0002:00007570       ??_C@_08LLGM@gmtime?4c?$AA@ 0047a570     LIBCMTD:gmtime.obj
 0002:0000757c       ??_C@_09LNLM@osfinfo?4c?$AA@ 0047a57c     LIBCMTD:osfinfo.obj
 0002:00007588       ??_C@_0BG@JPLP@Illegal?5byte?5sequence?$AA@ 0047a588     LIBCMTD:syserr.obj
 0002:000075a0       ??_C@_0BE@FLBN@Directory?5not?5empty?$AA@ 0047a5a0     LIBCMTD:syserr.obj
 0002:000075b4       ??_C@_0BJ@KAFL@Function?5not?5implemented?$AA@ 0047a5b4     LIBCMTD:syserr.obj
 0002:000075d0       ??_C@_0BD@CEML@No?5locks?5available?$AA@ 0047a5d0     LIBCMTD:syserr.obj
 0002:000075e4       ??_C@_0BC@GADJ@Filename?5too?5long?$AA@ 0047a5e4     LIBCMTD:syserr.obj
 0002:000075f8       ??_C@_0BK@FNFN@Resource?5deadlock?5avoided?$AA@ 0047a5f8     LIBCMTD:syserr.obj
 0002:00007614       ??_C@_0BB@EALI@Result?5too?5large?$AA@ 0047a614     LIBCMTD:syserr.obj
 0002:00007628       ??_C@_0N@FIAN@Domain?5error?$AA@ 0047a628     LIBCMTD:syserr.obj
 0002:00007638       ??_C@_0M@CLKF@Broken?5pipe?$AA@ 0047a638     LIBCMTD:syserr.obj
 0002:00007644       ??_C@_0P@OFDM@Too?5many?5links?$AA@ 0047a644     LIBCMTD:syserr.obj
 0002:00007654       ??_C@_0BG@OHDM@Read?9only?5file?5system?$AA@ 0047a654     LIBCMTD:syserr.obj
 0002:0000766c       ??_C@_0N@NGPA@Invalid?5seek?$AA@ 0047a66c     LIBCMTD:syserr.obj
 0002:0000767c       ??_C@_0BI@DMFE@No?5space?5left?5on?5device?$AA@ 0047a67c     LIBCMTD:syserr.obj
 0002:00007694       ??_C@_0P@OPNK@File?5too?5large?$AA@ 0047a694     LIBCMTD:syserr.obj
 0002:000076a4       ??_C@_0CE@BADJ@Inappropriate?5I?1O?5control?5operat@ 0047a6a4     LIBCMTD:syserr.obj
 0002:000076c8       ??_C@_0BE@COOK@Too?5many?5open?5files?$AA@ 0047a6c8     LIBCMTD:syserr.obj
 0002:000076dc       ??_C@_0BO@ELHF@Too?5many?5open?5files?5in?5system?$AA@ 0047a6dc     LIBCMTD:syserr.obj
 0002:000076fc       ??_C@_0BB@IHAB@Invalid?5argument?$AA@ 0047a6fc     LIBCMTD:syserr.obj
 0002:00007710       ??_C@_0P@NDNC@Is?5a?5directory?$AA@ 0047a710     LIBCMTD:syserr.obj
 0002:00007720       ??_C@_0BA@JMMO@Not?5a?5directory?$AA@ 0047a720     LIBCMTD:syserr.obj
 0002:00007730       ??_C@_0P@GFAI@No?5such?5device?$AA@ 0047a730     LIBCMTD:syserr.obj
 0002:00007740       ??_C@_0O@KHHM@Improper?5link?$AA@ 0047a740     LIBCMTD:syserr.obj
 0002:00007750       ??_C@_0M@EPHJ@File?5exists?$AA@ 0047a750     LIBCMTD:syserr.obj
 0002:0000775c       ??_C@_0BA@LPOH@Resource?5device?$AA@ 0047a75c     LIBCMTD:syserr.obj
 0002:0000776c       ??_C@_0O@NOFB@Unknown?5error?$AA@ 0047a76c     LIBCMTD:syserr.obj
 0002:0000777c       ??_C@_0M@MLJM@Bad?5address?$AA@ 0047a77c     LIBCMTD:syserr.obj
 0002:00007788       ??_C@_0BC@DJON@Permission?5denied?$AA@ 0047a788     LIBCMTD:syserr.obj
 0002:0000779c       ??_C@_0BB@KDDC@Not?5enough?5space?$AA@ 0047a79c     LIBCMTD:syserr.obj
 0002:000077b0       ??_C@_0CB@BBBH@Resource?5temporarily?5unavailable@ 0047a7b0     LIBCMTD:syserr.obj
 0002:000077d4       ??_C@_0BD@ODIH@No?5child?5processes?$AA@ 0047a7d4     LIBCMTD:syserr.obj
 0002:000077e8       ??_C@_0BE@CDDH@Bad?5file?5descriptor?$AA@ 0047a7e8     LIBCMTD:syserr.obj
 0002:000077fc       ??_C@_0BC@BICL@Exec?5format?5error?$AA@ 0047a7fc     LIBCMTD:syserr.obj
 0002:00007810       ??_C@_0BC@IGMC@Arg?5list?5too?5long?$AA@ 0047a810     LIBCMTD:syserr.obj
 0002:00007824       ??_C@_0BK@HLB@No?5such?5device?5or?5address?$AA@ 0047a824     LIBCMTD:syserr.obj
 0002:00007840       ??_C@_0BD@MPKK@Input?1output?5error?$AA@ 0047a840     LIBCMTD:syserr.obj
 0002:00007854       ??_C@_0BK@ODCM@Interrupted?5function?5call?$AA@ 0047a854     LIBCMTD:syserr.obj
 0002:00007870       ??_C@_0BA@BPKN@No?5such?5process?$AA@ 0047a870     LIBCMTD:syserr.obj
 0002:00007880       ??_C@_0BK@IEMO@No?5such?5file?5or?5directory?$AA@ 0047a880     LIBCMTD:syserr.obj
 0002:0000789c       ??_C@_0BI@IIAE@Operation?5not?5permitted?$AA@ 0047a89c     LIBCMTD:syserr.obj
 0002:000078b4       ??_C@_08KKBH@No?5error?$AA@ 0047a8b4     LIBCMTD:syserr.obj
 0002:000078c0       ??_C@_0L@JIE@_freebuf?4c?$AA@ 0047a8c0     LIBCMTD:_freebuf.obj
 0002:000078cc       ??_C@_09DNOI@_filbuf?4c?$AA@ 0047a8cc     LIBCMTD:_filbuf.obj
 0002:000078d8       ??_C@_07INLA@_open?4c?$AA@ 0047a8d8     LIBCMTD:_open.obj
 0002:000078e0       ??_C@_0BB@COCE@filename?5?$CB?$DN?5NULL?$AA@ 0047a8e0     LIBCMTD:_open.obj
 0002:000078f4       ??_C@_08HJEP@stream?4c?$AA@ 0047a8f4     LIBCMTD:stream.obj
 0002:00007900       ??_C@_0L@EJNO@wtombenv?4c?$AA@ 0047a900     LIBCMTD:wtombenv.obj
 0002:0000790c       ??_C@_08EIOK@chsize?4c?$AA@ 0047a90c     LIBCMTD:chsize.obj
 0002:00007918       ??_C@_09NPGF@size?5?$DO?$DN?50?$AA@ 0047a918     LIBCMTD:chsize.obj
 0002:00007924       ??_C@_07PCLE@LC_TIME?$AA@  0047a924     LIBCMTD:setlocal.obj
 0002:0000792c       ??_C@_0L@NKG@LC_NUMERIC?$AA@ 0047a92c     LIBCMTD:setlocal.obj
 0002:00007938       ??_C@_0M@CBIH@LC_MONETARY?$AA@ 0047a938     LIBCMTD:setlocal.obj
 0002:00007944       ??_C@_08LFGE@LC_CTYPE?$AA@ 0047a944     LIBCMTD:setlocal.obj
 0002:00007950       ??_C@_0L@CFLC@LC_COLLATE?$AA@ 0047a950     LIBCMTD:setlocal.obj
 0002:0000795c       ??_C@_06GCPK@LC_ALL?$AA@   0047a95c     LIBCMTD:setlocal.obj
 0002:00007964       ??_C@_02BGDO@?$DN?$DL?$AA@ 0047a964     LIBCMTD:setlocal.obj
 0002:00007968       ??_C@_0L@MOEE@setlocal?4c?$AA@ 0047a968     LIBCMTD:setlocal.obj
 0002:00007974       ??_C@_01KPOD@?$DN?$AA@     0047a974     LIBCMTD:setlocal.obj
 0002:00007978       ??_C@_03DBOJ@_?4?0?$AA@    0047a978     LIBCMTD:setlocal.obj
 0002:0000797c       ??_C@_01NON@_?$AA@         0047a97c     LIBCMTD:setlocal.obj
 0002:00007998       ??_C@_09EMDO@_getbuf?4c?$AA@ 0047a998     LIBCMTD:_getbuf.obj
 0002:000079a4       ??_C@_08CNMA@winsig?4c?$AA@ 0047a9a4     LIBCMTD:winsig.obj
 0002:000079b0       ??_C@_0BD@NJFP@GetLastActivePopup?$AA@ 0047a9b0     LIBCMTD:crtmbox.obj
 0002:000079c4       ??_C@_0BA@GILI@GetActiveWindow?$AA@ 0047a9c4     LIBCMTD:crtmbox.obj
 0002:000079d4       ??_C@_0M@PKCK@MessageBoxA?$AA@ 0047a9d4     LIBCMTD:crtmbox.obj
 0002:000079e0       ??_C@_08MOLN@mbtowc?4c?$AA@ 0047a9e0     LIBCMTD:mbtowc.obj
 0002:000079ec       ??_C@_0CD@NPPL@MB_CUR_MAX?5?$DN?$DN?51?5?$HM?$HM?5MB_CUR_MAX?5?$DN?$DN@ 0047a9ec     LIBCMTD:mbtowc.obj
 0002:00007a10       ??_C@_08JKP@ungetc?4c?$AA@ 0047aa10     LIBCMTD:ungetc.obj
 0002:00007a1c       ??_C@_07FOIK@a_cmp?4c?$AA@ 0047aa1c     LIBCMTD:a_cmp.obj
 0002:00007a24       ??_C@_0DN@PPKB@cchCount1?$DN?$DN0?5?$CG?$CG?5cchCount2?$DN?$DN1?5?$HM?$HM?5@ 0047aa24     LIBCMTD:a_cmp.obj
 0002:00007a80       ??_C@_08FEIK@setenv?4c?$AA@ 0047aa80     LIBCMTD:setenv.obj
 0002:00007a8c       ??_C@_0L@EEGJ@inittime?4c?$AA@ 0047aa8c     LIBCMTD:inittime.obj
 0002:00007a98       ??_C@_09IMJJ@initnum?4c?$AA@ 0047aa98     LIBCMTD:initnum.obj
 0002:00007aa4       ??_C@_09KPNI@initmon?4c?$AA@ 0047aaa4     LIBCMTD:initmon.obj
 0002:00007ab0       ??_C@_0L@COIL@initctyp?4c?$AA@ 0047aab0     LIBCMTD:initctyp.obj
 0002:00007abc       ??_C@_08OBJD@Paraguay?$AA@ 0047aabc     LIBCMTD:getqloc.obj
 0002:00007ac8       ??_C@_07GLKH@Uruguay?$AA@  0047aac8     LIBCMTD:getqloc.obj
 0002:00007ad0       ??_C@_05FPFC@Chile?$AA@    0047aad0     LIBCMTD:getqloc.obj
 0002:00007ad8       ??_C@_07IIGF@Ecuador?$AA@  0047aad8     LIBCMTD:getqloc.obj
 0002:00007ae0       ??_C@_09PKAL@Argentina?$AA@ 0047aae0     LIBCMTD:getqloc.obj
 0002:00007aec       ??_C@_04LKAH@Peru?$AA@     0047aaec     LIBCMTD:getqloc.obj
 0002:00007af4       ??_C@_08NEEM@Colombia?$AA@ 0047aaf4     LIBCMTD:getqloc.obj
 0002:00007b00       ??_C@_09ODEB@Venezuela?$AA@ 0047ab00     LIBCMTD:getqloc.obj
 0002:00007b0c       ??_C@_0BD@CLEL@Dominican?5Republic?$AA@ 0047ab0c     LIBCMTD:getqloc.obj
 0002:00007b20       ??_C@_0N@MDGL@South?5Africa?$AA@ 0047ab20     LIBCMTD:getqloc.obj
 0002:00007b30       ??_C@_06NKBG@Panama?$AA@   0047ab30     LIBCMTD:getqloc.obj
 0002:00007b38       ??_C@_0L@BMHO@Luxembourg?$AA@ 0047ab38     LIBCMTD:getqloc.obj
 0002:00007b44       ??_C@_0L@IMDK@Costa?5Rica?$AA@ 0047ab44     LIBCMTD:getqloc.obj
 0002:00007b50       ??_C@_0M@BLJF@Switzerland?$AA@ 0047ab50     LIBCMTD:getqloc.obj
 0002:00007b5c       ??_C@_09KBOL@Guatemala?$AA@ 0047ab5c     LIBCMTD:getqloc.obj
 0002:00007b68       ??_C@_06JNAK@Canada?$AA@   0047ab68     LIBCMTD:getqloc.obj
 0002:00007b70       ??_C@_0BG@OLLP@Spanish?5?9?5Modern?5Sort?$AA@ 0047ab70     LIBCMTD:getqloc.obj
 0002:00007b88       ??_C@_09IDKE@Australia?$AA@ 0047ab88     LIBCMTD:getqloc.obj
 0002:00007b94       ??_C@_07JJJJ@English?$AA@  0047ab94     LIBCMTD:getqloc.obj
 0002:00007b9c       ??_C@_07NMDO@Austria?$AA@  0047ab9c     LIBCMTD:getqloc.obj
 0002:00007ba4       ??_C@_06DEFE@German?$AA@   0047aba4     LIBCMTD:getqloc.obj
 0002:00007bac       ??_C@_07JAIH@Belgium?$AA@  0047abac     LIBCMTD:getqloc.obj
 0002:00007bb4       ??_C@_06BNLJ@Mexico?$AA@   0047abb4     LIBCMTD:getqloc.obj
 0002:00007bbc       ??_C@_07JHAG@Spanish?$AA@  0047abbc     LIBCMTD:getqloc.obj
 0002:00007bc4       ??_C@_06DADE@Basque?$AA@   0047abc4     LIBCMTD:getqloc.obj
 0002:00007bcc       ??_C@_06ENFP@Sweden?$AA@   0047abcc     LIBCMTD:getqloc.obj
 0002:00007bd4       ??_C@_07JPMH@Swedish?$AA@  0047abd4     LIBCMTD:getqloc.obj
 0002:00007bdc       ??_C@_07IEKF@Iceland?$AA@  0047abdc     LIBCMTD:getqloc.obj
 0002:00007be4       ??_C@_09KNEA@Icelandic?$AA@ 0047abe4     LIBCMTD:getqloc.obj
 0002:00007bf0       ??_C@_06IJOD@France?$AA@   0047abf0     LIBCMTD:getqloc.obj
 0002:00007bf8       ??_C@_06EINI@French?$AA@   0047abf8     LIBCMTD:getqloc.obj
 0002:00007c00       ??_C@_07FOOE@Finland?$AA@  0047ac00     LIBCMTD:getqloc.obj
 0002:00007c08       ??_C@_07OJOM@Finnish?$AA@  0047ac08     LIBCMTD:getqloc.obj
 0002:00007c10       ??_C@_05FFAC@Spain?$AA@    0047ac10     LIBCMTD:getqloc.obj
 0002:00007c18       ??_C@_0BL@BIHM@Spanish?5?9?5Traditional?5Sort?$AA@ 0047ac18     LIBCMTD:getqloc.obj
 0002:00007c34       ??_C@_0O@GLHB@united?9states?$AA@ 0047ac34     LIBCMTD:getqloc.obj
 0002:00007c44       ??_C@_0P@IIKK@united?9kingdom?$AA@ 0047ac44     LIBCMTD:getqloc.obj
 0002:00007c54       ??_C@_0BC@FHBO@trinidad?5?$CG?5tobago?$AA@ 0047ac54     LIBCMTD:getqloc.obj
 0002:00007c68       ??_C@_0M@BDFM@south?9korea?$AA@ 0047ac68     LIBCMTD:getqloc.obj
 0002:00007c74       ??_C@_0N@CKFA@south?9africa?$AA@ 0047ac74     LIBCMTD:getqloc.obj
 0002:00007c84       ??_C@_0M@HNHN@south?5korea?$AA@ 0047ac84     LIBCMTD:getqloc.obj
 0002:00007c90       ??_C@_0N@MKDO@south?5africa?$AA@ 0047ac90     LIBCMTD:getqloc.obj
 0002:00007ca0       ??_C@_06KFFJ@slovak?$AA@   0047aca0     LIBCMTD:getqloc.obj
 0002:00007ca8       ??_C@_0M@NMAC@puerto?9rico?$AA@ 0047aca8     LIBCMTD:getqloc.obj
 0002:00007cb4       ??_C@_08EJOH@pr?9china?$AA@ 0047acb4     LIBCMTD:getqloc.obj
 0002:00007cc0       ??_C@_08CHMG@pr?5china?$AA@ 0047acc0     LIBCMTD:getqloc.obj
 0002:00007ccc       ??_C@_02OCJK@nz?$AA@       0047accc     LIBCMTD:getqloc.obj
 0002:00007cd0       ??_C@_0M@MMKA@new?9zealand?$AA@ 0047acd0     LIBCMTD:getqloc.obj
 0002:00007cdc       ??_C@_09MGEH@hong?9kong?$AA@ 0047acdc     LIBCMTD:getqloc.obj
 0002:00007ce8       ??_C@_07CCAK@holland?$AA@  0047ace8     LIBCMTD:getqloc.obj
 0002:00007cf0       ??_C@_0O@MEPL@great?5britain?$AA@ 0047acf0     LIBCMTD:getqloc.obj
 0002:00007d00       ??_C@_07LGIB@england?$AA@  0047ad00     LIBCMTD:getqloc.obj
 0002:00007d08       ??_C@_05BMOA@czech?$AA@    0047ad08     LIBCMTD:getqloc.obj
 0002:00007d10       ??_C@_05NMPB@china?$AA@    0047ad10     LIBCMTD:getqloc.obj
 0002:00007d18       ??_C@_07GN@britain?$AA@    0047ad18     LIBCMTD:getqloc.obj
 0002:00007d20       ??_C@_07DLAK@america?$AA@  0047ad20     LIBCMTD:getqloc.obj
 0002:00007d28       ??_C@_03IPEP@usa?$AA@      0047ad28     LIBCMTD:getqloc.obj
 0002:00007d2c       ??_C@_02PILH@us?$AA@       0047ad2c     LIBCMTD:getqloc.obj
 0002:00007d30       ??_C@_02FHP@uk?$AA@        0047ad30     LIBCMTD:getqloc.obj
 0002:00007d34       ??_C@_05DEAI@swiss?$AA@    0047ad34     LIBCMTD:getqloc.obj
 0002:00007d3c       ??_C@_0BA@LIAF@swedish?9finland?$AA@ 0047ad3c     LIBCMTD:getqloc.obj
 0002:00007d4c       ??_C@_0BC@FMEG@spanish?9venezuela?$AA@ 0047ad4c     LIBCMTD:getqloc.obj
 0002:00007d60       ??_C@_0BA@BNMG@spanish?9uruguay?$AA@ 0047ad60     LIBCMTD:getqloc.obj
 0002:00007d70       ??_C@_0BE@BKDJ@spanish?9puerto?5rico?$AA@ 0047ad70     LIBCMTD:getqloc.obj
 0002:00007d84       ??_C@_0N@JIBL@spanish?9peru?$AA@ 0047ad84     LIBCMTD:getqloc.obj
 0002:00007d94       ??_C@_0BB@OGOF@spanish?9paraguay?$AA@ 0047ad94     LIBCMTD:getqloc.obj
 0002:00007da8       ??_C@_0P@LLFA@spanish?9panama?$AA@ 0047ada8     LIBCMTD:getqloc.obj
 0002:00007db8       ??_C@_0BC@BBJM@spanish?9nicaragua?$AA@ 0047adb8     LIBCMTD:getqloc.obj
 0002:00007dcc       ??_C@_0P@NJBN@spanish?9modern?$AA@ 0047adcc     LIBCMTD:getqloc.obj
 0002:00007ddc       ??_C@_0BA@NHDN@spanish?9mexican?$AA@ 0047addc     LIBCMTD:getqloc.obj
 0002:00007dec       ??_C@_0BB@JHOJ@spanish?9honduras?$AA@ 0047adec     LIBCMTD:getqloc.obj
 0002:00007e00       ??_C@_0BC@BOOM@spanish?9guatemala?$AA@ 0047ae00     LIBCMTD:getqloc.obj
 0002:00007e14       ??_C@_0BE@EELI@spanish?9el?5salvador?$AA@ 0047ae14     LIBCMTD:getqloc.obj
 0002:00007e28       ??_C@_0BA@POAE@spanish?9ecuador?$AA@ 0047ae28     LIBCMTD:getqloc.obj
 0002:00007e38       ??_C@_0BL@LDKN@spanish?9dominican?5republic?$AA@ 0047ae38     LIBCMTD:getqloc.obj
 0002:00007e54       ??_C@_0BD@HPMH@spanish?9costa?5rica?$AA@ 0047ae54     LIBCMTD:getqloc.obj
 0002:00007e68       ??_C@_0BB@NDDK@spanish?9colombia?$AA@ 0047ae68     LIBCMTD:getqloc.obj
 0002:00007e7c       ??_C@_0O@BJHA@spanish?9chile?$AA@ 0047ae7c     LIBCMTD:getqloc.obj
 0002:00007e8c       ??_C@_0BA@OBNG@spanish?9bolivia?$AA@ 0047ae8c     LIBCMTD:getqloc.obj
 0002:00007e9c       ??_C@_0BC@EFAM@spanish?9argentina?$AA@ 0047ae9c     LIBCMTD:getqloc.obj
 0002:00007eb0       ??_C@_0BF@KMMM@portuguese?9brazilian?$AA@ 0047aeb0     LIBCMTD:getqloc.obj
 0002:00007ec8       ??_C@_0BC@BAAE@norwegian?9nynorsk?$AA@ 0047aec8     LIBCMTD:getqloc.obj
 0002:00007edc       ??_C@_0BB@PBHK@norwegian?9bokmal?$AA@ 0047aedc     LIBCMTD:getqloc.obj
 0002:00007ef0       ??_C@_09EHKL@norwegian?$AA@ 0047aef0     LIBCMTD:getqloc.obj
 0002:00007efc       ??_C@_0O@BEAN@italian?9swiss?$AA@ 0047aefc     LIBCMTD:getqloc.obj
 0002:00007f0c       ??_C@_0O@OIFK@irish?9english?$AA@ 0047af0c     LIBCMTD:getqloc.obj
 0002:00007f1c       ??_C@_0N@NBPL@german?9swiss?$AA@ 0047af1c     LIBCMTD:getqloc.obj
 0002:00007f2c       ??_C@_0BC@ICFJ@german?9luxembourg?$AA@ 0047af2c     LIBCMTD:getqloc.obj
 0002:00007f40       ??_C@_0BE@GGPC@german?9lichtenstein?$AA@ 0047af40     LIBCMTD:getqloc.obj
 0002:00007f54       ??_C@_0BA@MKDC@german?9austrian?$AA@ 0047af54     LIBCMTD:getqloc.obj
 0002:00007f64       ??_C@_0N@ODNB@french?9swiss?$AA@ 0047af64     LIBCMTD:getqloc.obj
 0002:00007f74       ??_C@_0BC@MGCM@french?9luxembourg?$AA@ 0047af74     LIBCMTD:getqloc.obj
 0002:00007f88       ??_C@_0BA@NABK@french?9canadian?$AA@ 0047af88     LIBCMTD:getqloc.obj
 0002:00007f98       ??_C@_0P@CJNO@french?9belgian?$AA@ 0047af98     LIBCMTD:getqloc.obj
 0002:00007fa8       ??_C@_0M@LJOL@english?9usa?$AA@ 0047afa8     LIBCMTD:getqloc.obj
 0002:00007fb4       ??_C@_0L@FMNC@english?9us?$AA@ 0047afb4     LIBCMTD:getqloc.obj
 0002:00007fc0       ??_C@_0L@KBBK@english?9uk?$AA@ 0047afc0     LIBCMTD:getqloc.obj
 0002:00007fcc       ??_C@_0BK@NDDE@english?9trinidad?5y?5tobago?$AA@ 0047afcc     LIBCMTD:getqloc.obj
 0002:00007fe8       ??_C@_0BF@LKML@english?9south?5africa?$AA@ 0047afe8     LIBCMTD:getqloc.obj
 0002:00008000       ??_C@_0L@EGPP@english?9nz?$AA@ 0047b000     LIBCMTD:getqloc.obj
 0002:0000800c       ??_C@_0BA@HLH@english?9jamaica?$AA@ 0047b00c     LIBCMTD:getqloc.obj
 0002:0000801c       ??_C@_0M@PMJI@english?9ire?$AA@ 0047b01c     LIBCMTD:getqloc.obj
 0002:00008028       ??_C@_0BC@HINE@english?9caribbean?$AA@ 0047b028     LIBCMTD:getqloc.obj
 0002:0000803c       ??_C@_0M@DCFH@english?9can?$AA@ 0047b03c     LIBCMTD:getqloc.obj
 0002:00008048       ??_C@_0P@DGHK@english?9belize?$AA@ 0047b048     LIBCMTD:getqloc.obj
 0002:00008058       ??_C@_0M@FLHK@english?9aus?$AA@ 0047b058     LIBCMTD:getqloc.obj
 0002:00008064       ??_C@_0BB@HNCK@english?9american?$AA@ 0047b064     LIBCMTD:getqloc.obj
 0002:00008078       ??_C@_0O@PAMI@dutch?9belgian?$AA@ 0047b078     LIBCMTD:getqloc.obj
 0002:00008088       ??_C@_0BE@FPEJ@chinese?9traditional?$AA@ 0047b088     LIBCMTD:getqloc.obj
 0002:0000809c       ??_C@_0BC@CHFL@chinese?9singapore?$AA@ 0047b09c     LIBCMTD:getqloc.obj
 0002:000080b0       ??_C@_0BD@DCMH@chinese?9simplified?$AA@ 0047b0b0     LIBCMTD:getqloc.obj
 0002:000080c4       ??_C@_0BB@JMOE@chinese?9hongkong?$AA@ 0047b0c4     LIBCMTD:getqloc.obj
 0002:000080d8       ??_C@_07NGFN@chinese?$AA@  0047b0d8     LIBCMTD:getqloc.obj
 0002:000080e0       ??_C@_03PCOI@chi?$AA@      0047b0e0     LIBCMTD:getqloc.obj
 0002:000080e4       ??_C@_03FIHP@chh?$AA@      0047b0e4     LIBCMTD:getqloc.obj
 0002:000080e8       ??_C@_08HFLO@canadian?$AA@ 0047b0e8     LIBCMTD:getqloc.obj
 0002:000080f4       ??_C@_07INIJ@belgian?$AA@  0047b0f4     LIBCMTD:getqloc.obj
 0002:000080fc       ??_C@_0L@LCCA@australian?$AA@ 0047b0fc     LIBCMTD:getqloc.obj
 0002:00008108       ??_C@_0BB@BJIO@american?9english?$AA@ 0047b108     LIBCMTD:getqloc.obj
 0002:0000811c       ??_C@_0BB@DAGO@american?5english?$AA@ 0047b11c     LIBCMTD:getqloc.obj
 0002:00008130       ??_C@_08HENB@american?$AA@ 0047b130     LIBCMTD:getqloc.obj
 0002:0000813c       ??_C@_03DGJE@OCP?$AA@      0047b13c     LIBCMTD:getqloc.obj
 0002:00008140       ??_C@_03EKFG@ACP?$AA@      0047b140     LIBCMTD:getqloc.obj
 0002:00008144       ??_C@_06PAPI@1?$CDQNAN?$AA@ 0047b144     LIBCMTD:x10fout.obj
 0002:0000814c       ??_C@_05BGNL@1?$CDINF?$AA@ 0047b14c     LIBCMTD:x10fout.obj
 0002:00008154       ??_C@_05EDPF@1?$CDIND?$AA@ 0047b154     LIBCMTD:x10fout.obj
 0002:0000815c       ??_C@_06LKFM@1?$CDSNAN?$AA@ 0047b15c     LIBCMTD:x10fout.obj
 0002:00008164       ??_C@_07CJME@H?3mm?3ss?$AA@ 0047b164     LIBCMTD:strftime.obj
 0002:0000816c       ??_C@_0BE@MHI@dddd?0?5MMMM?5dd?0?5yyyy?$AA@ 0047b16c     LIBCMTD:strftime.obj
 0002:00008180       ??_C@_06HCAD@M?1d?1yy?$AA@ 0047b180     LIBCMTD:strftime.obj
 0002:00008188       ??_C@_02DBLP@PM?$AA@       0047b188     LIBCMTD:strftime.obj
 0002:0000818c       ??_C@_02ENLM@AM?$AA@       0047b18c     LIBCMTD:strftime.obj
 0002:00008190       ??_C@_08LIDF@December?$AA@ 0047b190     LIBCMTD:strftime.obj
 0002:0000819c       ??_C@_08NJLI@November?$AA@ 0047b19c     LIBCMTD:strftime.obj
 0002:000081a8       ??_C@_07IAMM@October?$AA@  0047b1a8     LIBCMTD:strftime.obj
 0002:000081b0       ??_C@_09MKGD@September?$AA@ 0047b1b0     LIBCMTD:strftime.obj
 0002:000081bc       ??_C@_06PADP@August?$AA@   0047b1bc     LIBCMTD:strftime.obj
 0002:000081c4       ??_C@_04PIJO@July?$AA@     0047b1c4     LIBCMTD:strftime.obj
 0002:000081cc       ??_C@_04ICFP@June?$AA@     0047b1cc     LIBCMTD:strftime.obj
 0002:000081d4       ??_C@_05JFGC@April?$AA@    0047b1d4     LIBCMTD:strftime.obj
 0002:000081dc       ??_C@_05FGPD@March?$AA@    0047b1dc     LIBCMTD:strftime.obj
 0002:000081e4       ??_C@_08PGBA@February?$AA@ 0047b1e4     LIBCMTD:strftime.obj
 0002:000081f0       ??_C@_07BPKJ@January?$AA@  0047b1f0     LIBCMTD:strftime.obj
 0002:000081f8       ??_C@_03PGJO@Dec?$AA@      0047b1f8     LIBCMTD:strftime.obj
 0002:000081fc       ??_C@_03PDLM@Nov?$AA@      0047b1fc     LIBCMTD:strftime.obj
 0002:00008200       ??_C@_03BLHK@Oct?$AA@      0047b200     LIBCMTD:strftime.obj
 0002:00008204       ??_C@_03DPFM@Sep?$AA@      0047b204     LIBCMTD:strftime.obj
 0002:00008208       ??_C@_03CMCH@Aug?$AA@      0047b208     LIBCMTD:strftime.obj
 0002:0000820c       ??_C@_03OBKI@Jul?$AA@      0047b20c     LIBCMTD:strftime.obj
 0002:00008210       ??_C@_03LEIG@Jun?$AA@      0047b210     LIBCMTD:strftime.obj
 0002:00008214       ??_C@_03MGHB@May?$AA@      0047b214     LIBCMTD:strftime.obj
 0002:00008218       ??_C@_03MJJM@Apr?$AA@      0047b218     LIBCMTD:strftime.obj
 0002:0000821c       ??_C@_03GNHA@Mar?$AA@      0047b21c     LIBCMTD:strftime.obj
 0002:00008220       ??_C@_03PICE@Feb?$AA@      0047b220     LIBCMTD:strftime.obj
 0002:00008224       ??_C@_03IEIF@Jan?$AA@      0047b224     LIBCMTD:strftime.obj
 0002:00008228       ??_C@_08FAKH@Saturday?$AA@ 0047b228     LIBCMTD:strftime.obj
 0002:00008234       ??_C@_06ONCK@Friday?$AA@   0047b234     LIBCMTD:strftime.obj
 0002:0000823c       ??_C@_08CCFO@Thursday?$AA@ 0047b23c     LIBCMTD:strftime.obj
 0002:00008248       ??_C@_09PBIN@Wednesday?$AA@ 0047b248     LIBCMTD:strftime.obj
 0002:00008254       ??_C@_07BMBC@Tuesday?$AA@  0047b254     LIBCMTD:strftime.obj
 0002:0000825c       ??_C@_06CHLK@Monday?$AA@   0047b25c     LIBCMTD:strftime.obj
 0002:00008264       ??_C@_06OOEM@Sunday?$AA@   0047b264     LIBCMTD:strftime.obj
 0002:0000826c       ??_C@_03MPKK@Sat?$AA@      0047b26c     LIBCMTD:strftime.obj
 0002:00008270       ??_C@_03FINJ@Fri?$AA@      0047b270     LIBCMTD:strftime.obj
 0002:00008274       ??_C@_03HIKC@Thu?$AA@      0047b274     LIBCMTD:strftime.obj
 0002:00008278       ??_C@_03HECK@Wed?$AA@      0047b278     LIBCMTD:strftime.obj
 0002:0000827c       ??_C@_03ECCP@Tue?$AA@      0047b27c     LIBCMTD:strftime.obj
 0002:00008280       ??_C@_03PIEP@Mon?$AA@      0047b280     LIBCMTD:strftime.obj
 0002:00008284       ??_C@_03FHEP@Sun?$AA@      0047b284     LIBCMTD:strftime.obj
 0002:00008288       ??_C@_03MKGK@a?1p?$AA@     0047b288     LIBCMTD:strftime.obj
 0002:0000828c       ??_C@_05BDJK@am?1pm?$AA@   0047b28c     LIBCMTD:strftime.obj
 0002:00008294       ??_C@_0L@HKCB@inithelp?4c?$AA@ 0047b294     LIBCMTD:inithelp.obj
 0003:00000000       ___xc_a                    0047d000     LIBCMTD:crt0init.obj
 0003:00000104       ___xc_z                    0047d104     LIBCMTD:crt0init.obj
 0003:00000208       ___xi_a                    0047d208     LIBCMTD:crt0init.obj
 0003:00000418       ___xi_z                    0047d418     LIBCMTD:crt0init.obj
 0003:0000051c       ___xp_a                    0047d51c     LIBCMTD:crt0init.obj
 0003:00000724       ___xp_z                    0047d724     LIBCMTD:crt0init.obj
 0003:00000828       ___xt_a                    0047d828     LIBCMTD:crt0init.obj
 0003:0000092c       ___xt_z                    0047d92c     LIBCMTD:crt0init.obj
 0003:00031c80       _xferSyntaxMap             004aec80     ctn_lib:send.obj
 0003:00031cf0       _metaRequired              004aecf0     ctn_lib:dcm1.obj
 0003:00031e48       _metaOptional              004aee48     ctn_lib:dcm1.obj
 0003:00031fe0       __crtDbgFlag               004aefe0     LIBCMTD:dbgheap.obj
 0003:00031fe8       __crtBreakAlloc            004aefe8     LIBCMTD:dbgheap.obj
 0003:00032010       __fltused                  004af010     LIBCMTD:fpinit.obj
 0003:00032014       __ldused                   004af014     LIBCMTD:fpinit.obj
 0003:00032018       __FPinit                   004af018     LIBCMTD:fpinit.obj
 0003:0003201c       __FPmtinit                 004af01c     LIBCMTD:fpinit.obj
 0003:00032020       __FPmtterm                 004af020     LIBCMTD:fpinit.obj
 0003:00032028       __iob                      004af028     LIBCMTD:_file.obj
 0003:000322a8       __aexit_rtn                004af2a8     LIBCMTD:crt0.obj
 0003:000322ac       ___app_type                004af2ac     LIBCMTD:crt0.obj
 0003:000322b0       __pctype                   004af2b0     LIBCMTD:ctype.obj
 0003:000322b4       __pwctype                  004af2b4     LIBCMTD:ctype.obj
 0003:000322b8       __ctype                    004af2b8     LIBCMTD:ctype.obj
 0003:000324bc       ___mb_cur_max              004af4bc     LIBCMTD:nlsdata1.obj
 0003:000324c0       ___decimal_point           004af4c0     LIBCMTD:nlsdata1.obj
 0003:000324c4       ___decimal_point_length    004af4c4     LIBCMTD:nlsdata1.obj
 0003:00032650       ___nullstring              004af650     LIBCMTD:output.obj
 0003:00032654       ___wnullstring             004af654     LIBCMTD:output.obj
 0003:00032658       __crtAssertBusy            004af658     LIBCMTD:dbgrpt.obj
 0003:0003265c       __CrtDbgMode               004af65c     LIBCMTD:dbgrpt.obj
 0003:00032668       __CrtDbgFile               004af668     LIBCMTD:dbgrpt.obj
 0003:0003268c       __locktable                004af68c     LIBCMTD:mlock.obj
 0003:0003274c       __NLG_Destination          004af74c     LIBCMTD:exsup.obj
 0003:0003275c       __pfnAllocHook             004af75c     LIBCMTD:dbghook.obj
 0003:00032760       ___old_small_block_heap    004af760     LIBCMTD:sbheap.obj
 0003:00034784       ___old_sbh_threshold       004b1784     LIBCMTD:sbheap.obj
 0003:00034788       __amblksiz                 004b1788     LIBCMTD:heapinit.obj
 0003:0003478c       __cfltcvt_tab              004b178c     LIBCMTD:cmiscdat.obj
 0003:000347a8       ___badioinfo               004b17a8     LIBCMTD:ioinit.obj
 0003:000347d0       __XcptActTab               004b17d0     LIBCMTD:winxfltr.obj
 0003:00034848       __First_FPE_Indx           004b1848     LIBCMTD:winxfltr.obj
 0003:0003484c       __Num_FPE                  004b184c     LIBCMTD:winxfltr.obj
 0003:00034850       __XcptActTabSize           004b1850     LIBCMTD:winxfltr.obj
 0003:00034854       __XcptActTabCount          004b1854     LIBCMTD:winxfltr.obj
 0003:00034858       ___tlsindex                004b1858     LIBCMTD:tidtable.obj
 0003:000348f0       __timezone                 004b18f0     LIBCMTD:timeset.obj
 0003:000348f4       __daylight                 004b18f4     LIBCMTD:timeset.obj
 0003:000348f8       __dstbias                  004b18f8     LIBCMTD:timeset.obj
 0003:0003497c       __tzname                   004b197c     LIBCMTD:timeset.obj
 0003:000349b0       __sys_errlist              004b19b0     LIBCMTD:syserr.obj
 0003:00034a60       __sys_nerr                 004b1a60     LIBCMTD:syserr.obj
 0003:00034b70       ___lc_category             004b1b70     LIBCMTD:setlocal.obj
 0003:00034ce8       __lpdays                   004b1ce8     LIBCMTD:days.obj
 0003:00034d1c       __days                     004b1d1c     LIBCMTD:days.obj
 0003:00034d50       ___rgLocInfo               004b1d50     LIBCMTD:getqloc.obj
 0003:000351f4       ___rglangidNotDefault      004b21f4     LIBCMTD:getqloc.obj
 0003:00035208       ___rg_country              004b2208     LIBCMTD:getqloc.obj
 0003:000352c0       ___rg_language             004b22c0     LIBCMTD:getqloc.obj
 0003:000354c8       ___lc_time_curr            004b24c8     LIBCMTD:strftime.obj
 0003:000354d0       ___lc_time_c               004b24d0     LIBCMTD:strftime.obj
 0003:00035580       ___lconv_static_decimal    004b2580     LIBCMTD:lconv.obj
 0003:00035588       ___lconv_c                 004b2588     LIBCMTD:lconv.obj
 0003:000355b8       ___lconv                   004b25b8     LIBCMTD:lconv.obj
 0003:000355c0       __pow10pos                 004b25c0     LIBCMTD:constpow.obj
 0003:00035720       __pow10neg                 004b2720     LIBCMTD:constpow.obj
 0003:00046e78       _PRVSRV_debug              004c3e78     ctn_lib:cmd_valid.obj
 0003:000480b0       ___fastflag                004c50b0     LIBCMTD:fpinit.obj
 0003:000480b4       __adjust_fdiv              004c50b4     LIBCMTD:fpinit.obj
 0003:000480b8       __umaskval                 004c50b8     LIBCMTD:crt0dat.obj
 0003:000480bc       __osver                    004c50bc     LIBCMTD:crt0dat.obj
 0003:000480c0       __winver                   004c50c0     LIBCMTD:crt0dat.obj
 0003:000480c4       __winmajor                 004c50c4     LIBCMTD:crt0dat.obj
 0003:000480c8       __winminor                 004c50c8     LIBCMTD:crt0dat.obj
 0003:000480cc       ___argc                    004c50cc     LIBCMTD:crt0dat.obj
 0003:000480d0       ___argv                    004c50d0     LIBCMTD:crt0dat.obj
 0003:000480d4       ___wargv                   004c50d4     LIBCMTD:crt0dat.obj
 0003:000480d8       __environ                  004c50d8     LIBCMTD:crt0dat.obj
 0003:000480dc       ___initenv                 004c50dc     LIBCMTD:crt0dat.obj
 0003:000480e0       __wenviron                 004c50e0     LIBCMTD:crt0dat.obj
 0003:000480e4       ___winitenv                004c50e4     LIBCMTD:crt0dat.obj
 0003:000480e8       __pgmptr                   004c50e8     LIBCMTD:crt0dat.obj
 0003:000480ec       __wpgmptr                  004c50ec     LIBCMTD:crt0dat.obj
 0003:000480f0       __exitflag                 004c50f0     LIBCMTD:crt0dat.obj
 0003:000480f4       __C_Termination_Done       004c50f4     LIBCMTD:crt0dat.obj
 0003:000480f8       __C_Exit_Done              004c50f8     LIBCMTD:crt0dat.obj
 0003:00048100       __cflush                   004c5100     LIBCMTD:_file.obj
 0003:00048104       __aenvptr                  004c5104     LIBCMTD:crt0.obj
 0003:00048108       __wenvptr                  004c5108     LIBCMTD:crt0.obj
 0003:0004810c       ___error_mode              004c510c     LIBCMTD:crt0.obj
 0003:00048158       __newmode                  004c5158     LIBCMTD:_newmode.obj
 0003:0004815c       ?_pnhHeap@@3P6AHI@ZA       004c515c     LIBCMTD:handler.obj
 0003:000481c4       __stdbuf                   004c51c4     LIBCMTD:_sftbuf.obj
 0003:000482d4       __adbgmsg                  004c52d4     LIBCMTD:crt0msg.obj
 0003:000483c4       __fmode                    004c53c4     LIBCMTD:txtmode.obj
 0003:000483d4       ___lc_handle               004c53d4     LIBCMTD:nlsdata2.obj
 0003:000483ec       ___lc_codepage             004c53ec     LIBCMTD:nlsdata2.obj
 0003:000483f0       ___lc_collate_cp           004c53f0     LIBCMTD:nlsdata2.obj
 0003:0004841c       __commode                  004c541c     LIBCMTD:ncommode.obj
 0003:00048424       ___lc_time_intl            004c5424     LIBCMTD:inittime.obj
 0003:00048440       ___lc_id                   004c5440     LIBCMTD:nlsdata3.obj
 0003:00048490       ___lconv_static_null       004c5490     LIBCMTD:lconv.obj
 0003:000484a0       _groupElement              004c54a0     <common>
 0003:000484c0       _hMutex                    004c54c0     <common>
 0003:000485b8       ___alternate_form          004c55b8     <common>
 0003:000485c8       ___no_lead_zeros           004c55c8     <common>
 0003:000485cc       ___mbcodepage              004c55cc     <common>
 0003:00048650       ___mbulinfo                004c5650     <common>
 0003:0004865c       ___ismbcodepage            004c565c     <common>
 0003:00048660       __mbcasemap                004c5660     <common>
 0003:00048760       __mbctype                  004c5760     <common>
 0003:00048864       ___mblcid                  004c5864     <common>
 0003:00048868       ___setlc_active            004c5868     <common>
 0003:00048878       ___unguarded_readlc_active 004c5878     <common>
 0003:00048880       ___pioinfo                 004c5880     <common>
 0003:000489bc       __nhandle                  004c59bc     <common>
 0003:000489c0       __crtheap                  004c59c0     <common>
 0003:000489d0       ___active_heap             004c59d0     <common>
 0003:000489d4       ___sbh_sizeHeaderList      004c59d4     <common>
 0003:000489e8       ___sbh_indGroupDefer       004c59e8     <common>
 0003:000489ec       ___sbh_pHeaderScan         004c59ec     <common>
 0003:000489f0       ___sbh_initialized         004c59f0     <common>
 0003:000489f4       ___sbh_pHeaderDefer        004c59f4     <common>
 0003:000489f8       ___sbh_cntHeaderList       004c59f8     <common>
 0003:000489fc       ___sbh_pHeaderList         004c59fc     <common>
 0003:00048a00       ___sbh_threshold           004c5a00     <common>
 0003:00048a04       __pfnReportHook            004c5a04     <common>
 0003:00048a10       __acmdln                   004c5a10     <common>
 0003:00048a1c       ___piob                    004c5a1c     <common>
 0003:00048d60       __bufin                    004c5d60     <common>
 0003:00049d60       __nstream                  004c6d60     <common>
 0003:00049d64       ___env_initialized         004c6d64     <common>
 0003:00049d74       ___mbctype_initialized     004c6d74     <common>
 0003:00049d78       ___onexitend               004c6d78     <common>
 0003:00049d7c       ___onexitbegin             004c6d7c     <common>
 0003:00049d80       __pfnDumpClient            004c6d80     <common>
 0004:00000000       __IMPORT_DESCRIPTOR_WSOCK32 004c7000     wsock32:WSOCK32.dll
 0004:00000014       __IMPORT_DESCRIPTOR_KERNEL32 004c7014     kernel32:KERNEL32.dll
 0004:00000028       __NULL_IMPORT_DESCRIPTOR   004c7028     wsock32:WSOCK32.dll
 0004:000002b4       __imp__GetModuleFileNameA@12 004c72b4     kernel32:KERNEL32.dll
 0004:000002b8       __imp__DeleteFileA@4       004c72b8     kernel32:KERNEL32.dll
 0004:000002bc       __imp__GetLocaleInfoW@16   004c72bc     kernel32:KERNEL32.dll
 0004:000002c0       __imp__GetUserDefaultLCID@0 004c72c0     kernel32:KERNEL32.dll
 0004:000002c4       __imp__EnumSystemLocalesA@8 004c72c4     kernel32:KERNEL32.dll
 0004:000002c8       __imp__GetLocaleInfoA@16   004c72c8     kernel32:KERNEL32.dll
 0004:000002cc       __imp__IsValidCodePage@4   004c72cc     kernel32:KERNEL32.dll
 0004:000002d0       __imp__IsValidLocale@8     004c72d0     kernel32:KERNEL32.dll
 0004:000002d4       __imp__SetEnvironmentVariableA@8 004c72d4     kernel32:KERNEL32.dll
 0004:000002d8       __imp__CompareStringW@24   004c72d8     kernel32:KERNEL32.dll
 0004:000002dc       __imp__CompareStringA@24   004c72dc     kernel32:KERNEL32.dll
 0004:000002e0       __imp__GetOEMCP@0          004c72e0     kernel32:KERNEL32.dll
 0004:000002e4       __imp__GetACP@0            004c72e4     kernel32:KERNEL32.dll
 0004:000002e8       __imp__GetCPInfo@8         004c72e8     kernel32:KERNEL32.dll
 0004:000002ec       __imp__SetConsoleCtrlHandler@8 004c72ec     kernel32:KERNEL32.dll
 0004:000002f0       __imp__FlushFileBuffers@4  004c72f0     kernel32:KERNEL32.dll
 0004:000002f4       __imp__LCMapStringW@24     004c72f4     kernel32:KERNEL32.dll
 0004:000002f8       __imp__LCMapStringA@24     004c72f8     kernel32:KERNEL32.dll
 0004:000002fc       __imp__Sleep@4             004c72fc     kernel32:KERNEL32.dll
 0004:00000300       __imp__CreateMutexA@12     004c7300     kernel32:KERNEL32.dll
 0004:00000304       __imp__CloseHandle@4       004c7304     kernel32:KERNEL32.dll
 0004:00000308       __imp__WaitForSingleObject@8 004c7308     kernel32:KERNEL32.dll
 0004:0000030c       __imp__OpenMutexA@12       004c730c     kernel32:KERNEL32.dll
 0004:00000310       __imp__ReleaseMutex@4      004c7310     kernel32:KERNEL32.dll
 0004:00000314       __imp__IsBadWritePtr@8     004c7314     kernel32:KERNEL32.dll
 0004:00000318       __imp__IsBadReadPtr@8      004c7318     kernel32:KERNEL32.dll
 0004:0000031c       __imp__HeapValidate@12     004c731c     kernel32:KERNEL32.dll
 0004:00000320       __imp__ExitProcess@4       004c7320     kernel32:KERNEL32.dll
 0004:00000324       __imp__TerminateProcess@8  004c7324     kernel32:KERNEL32.dll
 0004:00000328       __imp__GetCurrentProcess@0 004c7328     kernel32:KERNEL32.dll
 0004:0000032c       __imp__EnterCriticalSection@4 004c732c     kernel32:KERNEL32.dll
 0004:00000330       __imp__LeaveCriticalSection@4 004c7330     kernel32:KERNEL32.dll
 0004:00000334       __imp__GetCommandLineA@0   004c7334     kernel32:KERNEL32.dll
 0004:00000338       __imp__GetVersion@0        004c7338     kernel32:KERNEL32.dll
 0004:0000033c       __imp__GetTimeZoneInformation@4 004c733c     kernel32:KERNEL32.dll
 0004:00000340       __imp__GetSystemTime@4     004c7340     kernel32:KERNEL32.dll
 0004:00000344       __imp__GetLocalTime@4      004c7344     kernel32:KERNEL32.dll
 0004:00000348       __imp__GetSystemTimeAsFileTime@4 004c7348     kernel32:KERNEL32.dll
 0004:0000034c       __imp__GetLastError@0      004c734c     kernel32:KERNEL32.dll
 0004:00000350       __imp__CreateDirectoryA@8  004c7350     kernel32:KERNEL32.dll
 0004:00000354       __imp__FindClose@4         004c7354     kernel32:KERNEL32.dll
 0004:00000358       __imp__FileTimeToSystemTime@8 004c7358     kernel32:KERNEL32.dll
 0004:0000035c       __imp__FileTimeToLocalFileTime@8 004c735c     kernel32:KERNEL32.dll
 0004:00000360       __imp__GetDriveTypeA@4     004c7360     kernel32:KERNEL32.dll
 0004:00000364       __imp__FindFirstFileA@8    004c7364     kernel32:KERNEL32.dll
 0004:00000368       __imp__FindNextFileA@8     004c7368     kernel32:KERNEL32.dll
 0004:0000036c       __imp__GetFileType@4       004c736c     kernel32:KERNEL32.dll
 0004:00000370       __imp__CreateFileA@28      004c7370     kernel32:KERNEL32.dll
 0004:00000374       __imp__ReadFile@20         004c7374     kernel32:KERNEL32.dll
 0004:00000378       __imp__InterlockedDecrement@4 004c7378     kernel32:KERNEL32.dll
 0004:0000037c       __imp__InterlockedIncrement@4 004c737c     kernel32:KERNEL32.dll
 0004:00000380       __imp__DebugBreak@0        004c7380     kernel32:KERNEL32.dll
 0004:00000384       __imp__GetStdHandle@4      004c7384     kernel32:KERNEL32.dll
 0004:00000388       __imp__WriteFile@20        004c7388     kernel32:KERNEL32.dll
 0004:0000038c       __imp__OutputDebugStringA@4 004c738c     kernel32:KERNEL32.dll
 0004:00000390       __imp__GetProcAddress@8    004c7390     kernel32:KERNEL32.dll
 0004:00000394       __imp__LoadLibraryA@4      004c7394     kernel32:KERNEL32.dll
 0004:00000398       __imp__GetCurrentProcessId@0 004c7398     kernel32:KERNEL32.dll
 0004:0000039c       __imp__InitializeCriticalSection@4 004c739c     kernel32:KERNEL32.dll
 0004:000003a0       __imp__DeleteCriticalSection@4 004c73a0     kernel32:KERNEL32.dll
 0004:000003a4       __imp__FatalAppExitA@8     004c73a4     kernel32:KERNEL32.dll
 0004:000003a8       __imp__RtlUnwind@16        004c73a8     kernel32:KERNEL32.dll
 0004:000003ac       __imp__HeapAlloc@12        004c73ac     kernel32:KERNEL32.dll
 0004:000003b0       __imp__HeapReAlloc@16      004c73b0     kernel32:KERNEL32.dll
 0004:000003b4       __imp__HeapFree@12         004c73b4     kernel32:KERNEL32.dll
 0004:000003b8       __imp__VirtualFree@12      004c73b8     kernel32:KERNEL32.dll
 0004:000003bc       __imp__VirtualAlloc@16     004c73bc     kernel32:KERNEL32.dll
 0004:000003c0       __imp__GetModuleHandleA@4  004c73c0     kernel32:KERNEL32.dll
 0004:000003c4       __imp__GetEnvironmentVariableA@12 004c73c4     kernel32:KERNEL32.dll
 0004:000003c8       __imp__GetVersionExA@4     004c73c8     kernel32:KERNEL32.dll
 0004:000003cc       __imp__HeapDestroy@4       004c73cc     kernel32:KERNEL32.dll
 0004:000003d0       __imp__HeapCreate@12       004c73d0     kernel32:KERNEL32.dll
 0004:000003d4       __imp__SetHandleCount@4    004c73d4     kernel32:KERNEL32.dll
 0004:000003d8       __imp__GetStartupInfoA@4   004c73d8     kernel32:KERNEL32.dll
 0004:000003dc       __imp__UnhandledExceptionFilter@4 004c73dc     kernel32:KERNEL32.dll
 0004:000003e0       __imp__FreeEnvironmentStringsA@4 004c73e0     kernel32:KERNEL32.dll
 0004:000003e4       __imp__FreeEnvironmentStringsW@4 004c73e4     kernel32:KERNEL32.dll
 0004:000003e8       __imp__WideCharToMultiByte@32 004c73e8     kernel32:KERNEL32.dll
 0004:000003ec       __imp__GetEnvironmentStrings@0 004c73ec     kernel32:KERNEL32.dll
 0004:000003f0       __imp__GetEnvironmentStringsW@0 004c73f0     kernel32:KERNEL32.dll
 0004:000003f4       __imp__GetCurrentThreadId@0 004c73f4     kernel32:KERNEL32.dll
 0004:000003f8       __imp__TlsSetValue@8       004c73f8     kernel32:KERNEL32.dll
 0004:000003fc       __imp__TlsAlloc@0          004c73fc     kernel32:KERNEL32.dll
 0004:00000400       __imp__TlsFree@4           004c7400     kernel32:KERNEL32.dll
 0004:00000404       __imp__SetLastError@4      004c7404     kernel32:KERNEL32.dll
 0004:00000408       __imp__TlsGetValue@4       004c7408     kernel32:KERNEL32.dll
 0004:0000040c       __imp__GetCurrentThread@0  004c740c     kernel32:KERNEL32.dll
 0004:00000410       __imp__MultiByteToWideChar@24 004c7410     kernel32:KERNEL32.dll
 0004:00000414       __imp__GetStringTypeA@20   004c7414     kernel32:KERNEL32.dll
 0004:00000418       __imp__GetStringTypeW@16   004c7418     kernel32:KERNEL32.dll
 0004:0000041c       __imp__SetStdHandle@8      004c741c     kernel32:KERNEL32.dll
 0004:00000420       __imp__GetFullPathNameA@16 004c7420     kernel32:KERNEL32.dll
 0004:00000424       __imp__GetCurrentDirectoryA@8 004c7424     kernel32:KERNEL32.dll
 0004:00000428       __imp__SetCurrentDirectoryA@4 004c7428     kernel32:KERNEL32.dll
 0004:0000042c       __imp__SetEndOfFile@4      004c742c     kernel32:KERNEL32.dll
 0004:00000430       __imp__SetFilePointer@16   004c7430     kernel32:KERNEL32.dll
 0004:00000434       \177KERNEL32_NULL_THUNK_DATA 004c7434     kernel32:KERNEL32.dll
 0004:000004ac       __imp__bind@12             004c74ac     wsock32:WSOCK32.dll
 0004:000004b0       __imp__getsockname@12      004c74b0     wsock32:WSOCK32.dll
 0004:000004b4       __imp__listen@8            004c74b4     wsock32:WSOCK32.dll
 0004:000004b8       __imp__accept@12           004c74b8     wsock32:WSOCK32.dll
 0004:000004bc       __imp__gethostbyaddr@12    004c74bc     wsock32:WSOCK32.dll
 0004:000004c0       __imp__select@20           004c74c0     wsock32:WSOCK32.dll
 0004:000004c4       __imp____WSAFDIsSet@8      004c74c4     wsock32:WSOCK32.dll
 0004:000004c8       __imp__recv@16             004c74c8     wsock32:WSOCK32.dll
 0004:000004cc       __imp__send@16             004c74cc     wsock32:WSOCK32.dll
 0004:000004d0       __imp__socket@12           004c74d0     wsock32:WSOCK32.dll
 0004:000004d4       __imp__gethostbyname@4     004c74d4     wsock32:WSOCK32.dll
 0004:000004d8       __imp__htons@4             004c74d8     wsock32:WSOCK32.dll
 0004:000004dc       __imp__connect@12          004c74dc     wsock32:WSOCK32.dll
 0004:000004e0       __imp__closesocket@4       004c74e0     wsock32:WSOCK32.dll
 0004:000004e4       __imp__WSACleanup@0        004c74e4     wsock32:WSOCK32.dll
 0004:000004e8       __imp__WSAStartup@8        004c74e8     wsock32:WSOCK32.dll
 0004:000004ec       __imp__setsockopt@20       004c74ec     wsock32:WSOCK32.dll
 0004:000004f0       __imp__gethostname@8       004c74f0     wsock32:WSOCK32.dll
 0004:000004f4       \177WSOCK32_NULL_THUNK_DATA 004c74f4     wsock32:WSOCK32.dll

 entry point at        0001:00026840

